
PruebaGlobal.elf:     file format elf32-avr

Sections:
Idx Name          Size      VMA       LMA       File off  Algn
  0 .data         00000004  00800200  00000f08  00000f9c  2**0
                  CONTENTS, ALLOC, LOAD, DATA
  1 .text         00000f08  00000000  00000000  00000094  2**1
                  CONTENTS, ALLOC, LOAD, READONLY, CODE
  2 .bss          0000002a  00800204  00800204  00000fa0  2**0
                  ALLOC
  3 .comment      00000030  00000000  00000000  00000fa0  2**0
                  CONTENTS, READONLY
  4 .note.gnu.avr.deviceinfo 0000003c  00000000  00000000  00000fd0  2**2
                  CONTENTS, READONLY
  5 .debug_aranges 000002c0  00000000  00000000  0000100c  2**0
                  CONTENTS, READONLY, DEBUGGING
  6 .debug_info   00002414  00000000  00000000  000012cc  2**0
                  CONTENTS, READONLY, DEBUGGING
  7 .debug_abbrev 00001237  00000000  00000000  000036e0  2**0
                  CONTENTS, READONLY, DEBUGGING
  8 .debug_line   0000172c  00000000  00000000  00004917  2**0
                  CONTENTS, READONLY, DEBUGGING
  9 .debug_frame  0000066c  00000000  00000000  00006044  2**2
                  CONTENTS, READONLY, DEBUGGING
 10 .debug_str    00000b04  00000000  00000000  000066b0  2**0
                  CONTENTS, READONLY, DEBUGGING
 11 .debug_loc    00000b5b  00000000  00000000  000071b4  2**0
                  CONTENTS, READONLY, DEBUGGING
 12 .debug_ranges 00000250  00000000  00000000  00007d0f  2**0
                  CONTENTS, READONLY, DEBUGGING

Disassembly of section .text:

00000000 <__vectors>:
   0:	0c 94 a1 00 	jmp	0x142	; 0x142 <__ctors_end>
   4:	0c 94 65 05 	jmp	0xaca	; 0xaca <__vector_1>
   8:	0c 94 be 00 	jmp	0x17c	; 0x17c <__bad_interrupt>
   c:	0c 94 96 05 	jmp	0xb2c	; 0xb2c <__vector_3>
  10:	0c 94 d7 05 	jmp	0xbae	; 0xbae <__vector_4>
  14:	0c 94 be 00 	jmp	0x17c	; 0x17c <__bad_interrupt>
  18:	0c 94 be 00 	jmp	0x17c	; 0x17c <__bad_interrupt>
  1c:	0c 94 be 00 	jmp	0x17c	; 0x17c <__bad_interrupt>
  20:	0c 94 be 00 	jmp	0x17c	; 0x17c <__bad_interrupt>
  24:	0c 94 be 00 	jmp	0x17c	; 0x17c <__bad_interrupt>
  28:	0c 94 be 00 	jmp	0x17c	; 0x17c <__bad_interrupt>
  2c:	0c 94 38 05 	jmp	0xa70	; 0xa70 <__vector_11>
  30:	0c 94 be 00 	jmp	0x17c	; 0x17c <__bad_interrupt>
  34:	0c 94 be 00 	jmp	0x17c	; 0x17c <__bad_interrupt>
  38:	0c 94 be 00 	jmp	0x17c	; 0x17c <__bad_interrupt>
  3c:	0c 94 be 00 	jmp	0x17c	; 0x17c <__bad_interrupt>
  40:	0c 94 be 00 	jmp	0x17c	; 0x17c <__bad_interrupt>
  44:	0c 94 04 05 	jmp	0xa08	; 0xa08 <__vector_17>
  48:	0c 94 be 00 	jmp	0x17c	; 0x17c <__bad_interrupt>
  4c:	0c 94 be 00 	jmp	0x17c	; 0x17c <__bad_interrupt>
  50:	0c 94 be 00 	jmp	0x17c	; 0x17c <__bad_interrupt>
  54:	0c 94 b2 04 	jmp	0x964	; 0x964 <__vector_21>
  58:	0c 94 be 00 	jmp	0x17c	; 0x17c <__bad_interrupt>
  5c:	0c 94 be 00 	jmp	0x17c	; 0x17c <__bad_interrupt>
  60:	0c 94 be 00 	jmp	0x17c	; 0x17c <__bad_interrupt>
  64:	0c 94 be 00 	jmp	0x17c	; 0x17c <__bad_interrupt>
  68:	0c 94 be 00 	jmp	0x17c	; 0x17c <__bad_interrupt>
  6c:	0c 94 be 00 	jmp	0x17c	; 0x17c <__bad_interrupt>
  70:	0c 94 be 00 	jmp	0x17c	; 0x17c <__bad_interrupt>
  74:	0c 94 be 00 	jmp	0x17c	; 0x17c <__bad_interrupt>
  78:	0c 94 be 00 	jmp	0x17c	; 0x17c <__bad_interrupt>
  7c:	0c 94 be 00 	jmp	0x17c	; 0x17c <__bad_interrupt>
  80:	0c 94 be 00 	jmp	0x17c	; 0x17c <__bad_interrupt>
  84:	0c 94 be 00 	jmp	0x17c	; 0x17c <__bad_interrupt>
  88:	0c 94 be 00 	jmp	0x17c	; 0x17c <__bad_interrupt>
  8c:	0c 94 be 00 	jmp	0x17c	; 0x17c <__bad_interrupt>
  90:	0c 94 be 00 	jmp	0x17c	; 0x17c <__bad_interrupt>
  94:	0c 94 be 00 	jmp	0x17c	; 0x17c <__bad_interrupt>
  98:	0c 94 be 00 	jmp	0x17c	; 0x17c <__bad_interrupt>
  9c:	0c 94 be 00 	jmp	0x17c	; 0x17c <__bad_interrupt>
  a0:	0c 94 be 00 	jmp	0x17c	; 0x17c <__bad_interrupt>
  a4:	0c 94 be 00 	jmp	0x17c	; 0x17c <__bad_interrupt>
  a8:	0c 94 be 00 	jmp	0x17c	; 0x17c <__bad_interrupt>
  ac:	0c 94 be 00 	jmp	0x17c	; 0x17c <__bad_interrupt>
  b0:	0c 94 be 00 	jmp	0x17c	; 0x17c <__bad_interrupt>
  b4:	0c 94 be 00 	jmp	0x17c	; 0x17c <__bad_interrupt>
  b8:	0c 94 be 00 	jmp	0x17c	; 0x17c <__bad_interrupt>
  bc:	0c 94 be 00 	jmp	0x17c	; 0x17c <__bad_interrupt>
  c0:	0c 94 be 00 	jmp	0x17c	; 0x17c <__bad_interrupt>
  c4:	0c 94 be 00 	jmp	0x17c	; 0x17c <__bad_interrupt>
  c8:	0c 94 be 00 	jmp	0x17c	; 0x17c <__bad_interrupt>
  cc:	0c 94 be 00 	jmp	0x17c	; 0x17c <__bad_interrupt>
  d0:	0c 94 be 00 	jmp	0x17c	; 0x17c <__bad_interrupt>
  d4:	0c 94 be 00 	jmp	0x17c	; 0x17c <__bad_interrupt>
  d8:	0c 94 be 00 	jmp	0x17c	; 0x17c <__bad_interrupt>
  dc:	0c 94 be 00 	jmp	0x17c	; 0x17c <__bad_interrupt>
  e0:	0c 94 be 00 	jmp	0x17c	; 0x17c <__bad_interrupt>
  e4:	d6 01       	movw	r26, r12
  e6:	da 01       	movw	r26, r20
  e8:	de 01       	movw	r26, r28
  ea:	e2 01       	movw	r28, r4
  ec:	e6 01       	movw	r28, r12
  ee:	ea 01       	movw	r28, r20
  f0:	ee 01       	movw	r28, r28
  f2:	f2 01       	movw	r30, r4
  f4:	f6 01       	movw	r30, r12
  f6:	fa 01       	movw	r30, r20
  f8:	17 02       	muls	r17, r23
  fa:	1b 02       	muls	r17, r27
  fc:	1f 02       	muls	r17, r31
  fe:	23 02       	muls	r18, r19
 100:	27 02       	muls	r18, r23
 102:	2b 02       	muls	r18, r27
 104:	2f 02       	muls	r18, r31
 106:	33 02       	muls	r19, r19
 108:	37 02       	muls	r19, r23
 10a:	3b 02       	muls	r19, r27
 10c:	73 02       	muls	r23, r19
 10e:	77 02       	muls	r23, r23
 110:	7b 02       	muls	r23, r27
 112:	7f 02       	muls	r23, r31
 114:	83 02       	muls	r24, r19
 116:	87 02       	muls	r24, r23
 118:	8b 02       	muls	r24, r27
 11a:	8f 02       	muls	r24, r31
 11c:	93 02       	muls	r25, r19
 11e:	97 02       	muls	r25, r23
 120:	b9 02       	muls	r27, r25
 122:	bd 02       	muls	r27, r29
 124:	c1 02       	muls	r28, r17
 126:	c5 02       	muls	r28, r21
 128:	c9 02       	muls	r28, r25
 12a:	cd 02       	muls	r28, r29
 12c:	d1 02       	muls	r29, r17
 12e:	d5 02       	muls	r29, r21
 130:	d9 02       	muls	r29, r25
 132:	dd 02       	muls	r29, r29
 134:	2f 06       	cpc	r2, r31
 136:	38 06       	cpc	r3, r24
 138:	59 06       	cpc	r5, r25
 13a:	bc 06       	cpc	r11, r28
 13c:	bf 06       	cpc	r11, r31
 13e:	fa 06       	cpc	r15, r26
 140:	1a 07       	cpc	r17, r26

00000142 <__ctors_end>:
 142:	11 24       	eor	r1, r1
 144:	1f be       	out	0x3f, r1	; 63
 146:	cf ef       	ldi	r28, 0xFF	; 255
 148:	d1 e2       	ldi	r29, 0x21	; 33
 14a:	de bf       	out	0x3e, r29	; 62
 14c:	cd bf       	out	0x3d, r28	; 61

0000014e <__do_copy_data>:
 14e:	12 e0       	ldi	r17, 0x02	; 2
 150:	a0 e0       	ldi	r26, 0x00	; 0
 152:	b2 e0       	ldi	r27, 0x02	; 2
 154:	e8 e0       	ldi	r30, 0x08	; 8
 156:	ff e0       	ldi	r31, 0x0F	; 15
 158:	02 c0       	rjmp	.+4      	; 0x15e <__do_copy_data+0x10>
 15a:	05 90       	lpm	r0, Z+
 15c:	0d 92       	st	X+, r0
 15e:	a4 30       	cpi	r26, 0x04	; 4
 160:	b1 07       	cpc	r27, r17
 162:	d9 f7       	brne	.-10     	; 0x15a <__do_copy_data+0xc>

00000164 <__do_clear_bss>:
 164:	22 e0       	ldi	r18, 0x02	; 2
 166:	a4 e0       	ldi	r26, 0x04	; 4
 168:	b2 e0       	ldi	r27, 0x02	; 2
 16a:	01 c0       	rjmp	.+2      	; 0x16e <.do_clear_bss_start>

0000016c <.do_clear_bss_loop>:
 16c:	1d 92       	st	X+, r1

0000016e <.do_clear_bss_start>:
 16e:	ae 32       	cpi	r26, 0x2E	; 46
 170:	b2 07       	cpc	r27, r18
 172:	e1 f7       	brne	.-8      	; 0x16c <.do_clear_bss_loop>
 174:	0e 94 fb 05 	call	0xbf6	; 0xbf6 <main>
 178:	0c 94 82 07 	jmp	0xf04	; 0xf04 <_exit>

0000017c <__bad_interrupt>:
 17c:	0c 94 00 00 	jmp	0	; 0x0 <__vectors>

00000180 <girarLanzador>:
//MACROS

// getter para los sensores opticos
inline int getOptico(int num){
	return readBit(SOPIN, num);
}
 180:	9c 01       	movw	r18, r24
 182:	eb e0       	ldi	r30, 0x0B	; 11
 184:	f1 e0       	ldi	r31, 0x01	; 1
 186:	90 81       	ld	r25, Z
 188:	9d 7f       	andi	r25, 0xFD	; 253
 18a:	90 83       	st	Z, r25
 18c:	20 93 00 02 	sts	0x0200, r18	; 0x800200 <__DATA_REGION_ORIGIN__>
 190:	21 30       	cpi	r18, 0x01	; 1
 192:	31 05       	cpc	r19, r1
 194:	31 f4       	brne	.+12     	; 0x1a2 <girarLanzador+0x22>
 196:	e8 e0       	ldi	r30, 0x08	; 8
 198:	f1 e0       	ldi	r31, 0x01	; 1
 19a:	80 81       	ld	r24, Z
 19c:	80 68       	ori	r24, 0x80	; 128
 19e:	80 83       	st	Z, r24
 1a0:	07 c0       	rjmp	.+14     	; 0x1b0 <girarLanzador+0x30>
 1a2:	23 2b       	or	r18, r19
 1a4:	29 f4       	brne	.+10     	; 0x1b0 <girarLanzador+0x30>
 1a6:	e8 e0       	ldi	r30, 0x08	; 8
 1a8:	f1 e0       	ldi	r31, 0x01	; 1
 1aa:	80 81       	ld	r24, Z
 1ac:	8f 77       	andi	r24, 0x7F	; 127
 1ae:	80 83       	st	Z, r24
 1b0:	eb e0       	ldi	r30, 0x0B	; 11
 1b2:	f1 e0       	ldi	r31, 0x01	; 1
 1b4:	80 81       	ld	r24, Z
 1b6:	82 60       	ori	r24, 0x02	; 2
 1b8:	80 83       	st	Z, r24
 1ba:	80 81       	ld	r24, Z
 1bc:	87 7f       	andi	r24, 0xF7	; 247
 1be:	80 83       	st	Z, r24
 1c0:	08 95       	ret

000001c2 <frenoLanzador>:
 1c2:	eb e0       	ldi	r30, 0x0B	; 11
 1c4:	f1 e0       	ldi	r31, 0x01	; 1
 1c6:	80 81       	ld	r24, Z
 1c8:	88 60       	ori	r24, 0x08	; 8
 1ca:	80 83       	st	Z, r24
 1cc:	80 81       	ld	r24, Z
 1ce:	8d 7f       	andi	r24, 0xFD	; 253
 1d0:	80 83       	st	Z, r24
 1d2:	82 e0       	ldi	r24, 0x02	; 2
 1d4:	80 93 00 02 	sts	0x0200, r24	; 0x800200 <__DATA_REGION_ORIGIN__>
 1d8:	08 95       	ret

000001da <pararLanzador>:
 1da:	eb e0       	ldi	r30, 0x0B	; 11
 1dc:	f1 e0       	ldi	r31, 0x01	; 1
 1de:	80 81       	ld	r24, Z
 1e0:	8d 7f       	andi	r24, 0xFD	; 253
 1e2:	80 83       	st	Z, r24
 1e4:	82 e0       	ldi	r24, 0x02	; 2
 1e6:	80 93 00 02 	sts	0x0200, r24	; 0x800200 <__DATA_REGION_ORIGIN__>
 1ea:	08 95       	ret

000001ec <moverVastagoAdelante>:
 1ec:	eb e0       	ldi	r30, 0x0B	; 11
 1ee:	f1 e0       	ldi	r31, 0x01	; 1
 1f0:	80 81       	ld	r24, Z
 1f2:	8f 7e       	andi	r24, 0xEF	; 239
 1f4:	80 83       	st	Z, r24
 1f6:	80 81       	ld	r24, Z
 1f8:	84 60       	ori	r24, 0x04	; 4
 1fa:	80 83       	st	Z, r24
 1fc:	80 81       	ld	r24, Z
 1fe:	80 61       	ori	r24, 0x10	; 16
 200:	80 83       	st	Z, r24
 202:	08 95       	ret

00000204 <moverVastagoAtras>:
 204:	eb e0       	ldi	r30, 0x0B	; 11
 206:	f1 e0       	ldi	r31, 0x01	; 1
 208:	80 81       	ld	r24, Z
 20a:	8f 7e       	andi	r24, 0xEF	; 239
 20c:	80 83       	st	Z, r24
 20e:	80 81       	ld	r24, Z
 210:	8b 7f       	andi	r24, 0xFB	; 251
 212:	80 83       	st	Z, r24
 214:	80 81       	ld	r24, Z
 216:	80 61       	ori	r24, 0x10	; 16
 218:	80 83       	st	Z, r24
 21a:	08 95       	ret

0000021c <pararVastago>:
 21c:	eb e0       	ldi	r30, 0x0B	; 11
 21e:	f1 e0       	ldi	r31, 0x01	; 1
 220:	80 81       	ld	r24, Z
 222:	8f 7e       	andi	r24, 0xEF	; 239
 224:	80 83       	st	Z, r24
 226:	08 95       	ret

00000228 <engancharCarrito>:
 228:	eb e0       	ldi	r30, 0x0B	; 11
 22a:	f1 e0       	ldi	r31, 0x01	; 1
 22c:	80 81       	ld	r24, Z
 22e:	8f 77       	andi	r24, 0x7F	; 127
 230:	80 83       	st	Z, r24
 232:	80 81       	ld	r24, Z
 234:	80 62       	ori	r24, 0x20	; 32
 236:	80 83       	st	Z, r24
 238:	80 81       	ld	r24, Z
 23a:	80 68       	ori	r24, 0x80	; 128
 23c:	80 83       	st	Z, r24
 23e:	08 95       	ret

00000240 <liberarCarrito>:
 240:	eb e0       	ldi	r30, 0x0B	; 11
 242:	f1 e0       	ldi	r31, 0x01	; 1
 244:	80 81       	ld	r24, Z
 246:	8f 77       	andi	r24, 0x7F	; 127
 248:	80 83       	st	Z, r24
 24a:	80 81       	ld	r24, Z
 24c:	8f 7d       	andi	r24, 0xDF	; 223
 24e:	80 83       	st	Z, r24
 250:	80 81       	ld	r24, Z
 252:	80 68       	ori	r24, 0x80	; 128
 254:	80 83       	st	Z, r24
 256:	08 95       	ret

00000258 <pararCarrito>:
 258:	eb e0       	ldi	r30, 0x0B	; 11
 25a:	f1 e0       	ldi	r31, 0x01	; 1
 25c:	80 81       	ld	r24, Z
 25e:	8f 77       	andi	r24, 0x7F	; 127
 260:	80 83       	st	Z, r24
 262:	08 95       	ret

00000264 <getSensor1>:
 264:	89 b1       	in	r24, 0x09	; 9
 266:	86 fb       	bst	r24, 6
 268:	88 27       	eor	r24, r24
 26a:	80 f9       	bld	r24, 0
 26c:	90 e0       	ldi	r25, 0x00	; 0
 26e:	08 95       	ret

00000270 <getSensor2>:
 270:	89 b1       	in	r24, 0x09	; 9
 272:	81 70       	andi	r24, 0x01	; 1
 274:	90 e0       	ldi	r25, 0x00	; 0
 276:	08 95       	ret

00000278 <getSensor3>:
 278:	89 b1       	in	r24, 0x09	; 9
 27a:	86 95       	lsr	r24
 27c:	81 70       	andi	r24, 0x01	; 1
 27e:	90 e0       	ldi	r25, 0x00	; 0
 280:	08 95       	ret

00000282 <getSensor4>:
 282:	89 b1       	in	r24, 0x09	; 9
 284:	82 95       	swap	r24
 286:	81 70       	andi	r24, 0x01	; 1
 288:	90 e0       	ldi	r25, 0x00	; 0
 28a:	08 95       	ret

0000028c <getSensor5>:
 28c:	89 b1       	in	r24, 0x09	; 9
 28e:	83 fb       	bst	r24, 3
 290:	88 27       	eor	r24, r24
 292:	80 f9       	bld	r24, 0
 294:	90 e0       	ldi	r25, 0x00	; 0
 296:	08 95       	ret

00000298 <getSensor6>:
 298:	89 b1       	in	r24, 0x09	; 9
 29a:	82 fb       	bst	r24, 2
 29c:	88 27       	eor	r24, r24
 29e:	80 f9       	bld	r24, 0
 2a0:	90 e0       	ldi	r25, 0x00	; 0
 2a2:	08 95       	ret

000002a4 <encenderLED>:
// *******
// LED Y DISPLAYS
// *******

inline void encenderLED(){
	setBit(L1PORT, L1X);
 2a4:	eb e0       	ldi	r30, 0x0B	; 11
 2a6:	f1 e0       	ldi	r31, 0x01	; 1
 2a8:	80 81       	ld	r24, Z
 2aa:	80 64       	ori	r24, 0x40	; 64
 2ac:	80 83       	st	Z, r24
 2ae:	08 95       	ret

000002b0 <apagarLED>:
}

inline void apagarLED(){
	clearBit(L1PORT, L1X);
 2b0:	eb e0       	ldi	r30, 0x0B	; 11
 2b2:	f1 e0       	ldi	r31, 0x01	; 1
 2b4:	80 81       	ld	r24, Z
 2b6:	8f 7b       	andi	r24, 0xBF	; 191
 2b8:	80 83       	st	Z, r24
 2ba:	08 95       	ret

000002bc <setup_puertos>:

#include "ConfiguracionV1.h"
#include "IncFile1.h"

void setup_puertos(){  // solo para Sensores Opticos y Displays
cli();
 2bc:	f8 94       	cli
//Puerto K						controla PCINTS para sensores de los bolos como entradas y además las señales 'direccion' del Motor M1 y M2 que son salidas. Comprobar si necesitan sus interrupciones activadas o no.		SensoresBolos.c
	DDRK = 0xC0;				//0b11000000
 2be:	80 ec       	ldi	r24, 0xC0	; 192
 2c0:	80 93 07 01 	sts	0x0107, r24	; 0x800107 <__TEXT_REGION_LENGTH__+0x7f0107>
	PCICR = (1<<PCIE2);			// Para activar las PCINT globalmente del grupo 3 (PCINT16-PCINT23)
 2c4:	84 e0       	ldi	r24, 0x04	; 4
 2c6:	80 93 68 00 	sts	0x0068, r24	; 0x800068 <__TEXT_REGION_LENGTH__+0x7f0068>
	PCMSK2 = 0x00;				//De inicio deshabilitadas: 0b00111111 (Habilitar localmente PCINT16-PCINT21)Hay que habilitarlos cuando llegue la señal de disparo, pq durante las deshabilitamos
 2ca:	10 92 6d 00 	sts	0x006D, r1	; 0x80006d <__TEXT_REGION_LENGTH__+0x7f006d>
	
//Puerto B						controla display de 7 segmentos y el selector de display. Se trata como salidas.
	DDRB = 0xFF;				//Puerto B configurado como salidas para controlar display 7 segmentos y selector
 2ce:	8f ef       	ldi	r24, 0xFF	; 255
 2d0:	84 b9       	out	0x04, r24	; 4
	PORTB = 0b00111111;			//Inicialemente display muestra 0 en el display 0
 2d2:	9f e3       	ldi	r25, 0x3F	; 63
 2d4:	95 b9       	out	0x05, r25	; 5
								//Puerto B tiene PCINT0-PCINT7 pero no los utilizamos.
	
//Puerto D						dedicado a los fines de carrera como entradas SW y a manejar el motor M5, tratado como salidas.
	DDRD = 0b10100000;			//PD7 y PD5 son salidas para el motor M5, el resto entradas para los SWi.
 2d6:	90 ea       	ldi	r25, 0xA0	; 160
 2d8:	9a b9       	out	0x0a, r25	; 10
	EICRA = 0xA2;				//0b10100010Todas las int por flanco de bajada 	//Puerto D tiene INT0-INT3 en sus cuatro primeros bits
 2da:	92 ea       	ldi	r25, 0xA2	; 162
 2dc:	90 93 69 00 	sts	0x0069, r25	; 0x800069 <__TEXT_REGION_LENGTH__+0x7f0069>
	//EIMSK = 0x0F;				//Habilitar interrupciones INT0-INT3
	enableInterrupt(SW2EIFR);
 2e0:	e8 9a       	sbi	0x1d, 0	; 29
	enableInterrupt(SW5EIFR);
 2e2:	eb 9a       	sbi	0x1d, 3	; 29
	enableInterrupt(SW6EIFR);
 2e4:	ea 9a       	sbi	0x1d, 2	; 29
	
//Puerto L						dedicado al manejo de los motores y al LED del sistema lanzador. Todo salidas
	DDRL = 0xFF;	
 2e6:	80 93 0a 01 	sts	0x010A, r24	; 0x80010a <__TEXT_REGION_LENGTH__+0x7f010a>
	
sei();
 2ea:	78 94       	sei
 2ec:	08 95       	ret

000002ee <setup_timer0>:
}

void setup_timer0(){			//Preparado para interrumpir cada 5 ms
	cli();
 2ee:	f8 94       	cli
	TCCR0A = 0b00000010;		//Modo CTC
 2f0:	82 e0       	ldi	r24, 0x02	; 2
 2f2:	84 bd       	out	0x24, r24	; 36
	TCCR0B = 0b00000100;		//Prescalado 256
 2f4:	94 e0       	ldi	r25, 0x04	; 4
 2f6:	95 bd       	out	0x25, r25	; 37
	TIMSK0 = 0b00000010;		//Habilita OCR0A 
 2f8:	80 93 6e 00 	sts	0x006E, r24	; 0x80006e <__TEXT_REGION_LENGTH__+0x7f006e>
	OCR0A =  156;				//Para contar cada 5ms
 2fc:	8c e9       	ldi	r24, 0x9C	; 156
 2fe:	87 bd       	out	0x27, r24	; 39
	
	sei();
 300:	78 94       	sei
 302:	08 95       	ret

00000304 <resetTimer1>:
}	

inline void resetTimer1(){
	TCNT1 = 0x00;
 304:	10 92 85 00 	sts	0x0085, r1	; 0x800085 <__TEXT_REGION_LENGTH__+0x7f0085>
 308:	10 92 84 00 	sts	0x0084, r1	; 0x800084 <__TEXT_REGION_LENGTH__+0x7f0084>
 30c:	08 95       	ret

0000030e <disableTimer1Int>:
}

inline void disableTimer1Int(){
	TIMSK1 = 0x00;
 30e:	10 92 6f 00 	sts	0x006F, r1	; 0x80006f <__TEXT_REGION_LENGTH__+0x7f006f>
 312:	08 95       	ret

00000314 <enableTimer1Int>:
}

inline void enableTimer1Int(){
	TIMSK1 = 0b00000010;
 314:	82 e0       	ldi	r24, 0x02	; 2
 316:	80 93 6f 00 	sts	0x006F, r24	; 0x80006f <__TEXT_REGION_LENGTH__+0x7f006f>
 31a:	08 95       	ret

0000031c <setup_timer1>:
}

void setup_timer1(){			//Preparado para interrumpir cada 30 seg
	cli();
 31c:	f8 94       	cli
	TCCR1A = 0b00000000;
 31e:	10 92 80 00 	sts	0x0080, r1	; 0x800080 <__TEXT_REGION_LENGTH__+0x7f0080>
	TCCR1B = 0b00001101;
 322:	8d e0       	ldi	r24, 0x0D	; 13
 324:	80 93 81 00 	sts	0x0081, r24	; 0x800081 <__TEXT_REGION_LENGTH__+0x7f0081>
	TIMSK1 = (1<<OCIE1A);
 328:	82 e0       	ldi	r24, 0x02	; 2
 32a:	80 93 6f 00 	sts	0x006F, r24	; 0x80006f <__TEXT_REGION_LENGTH__+0x7f006f>
	OCR1A  = 23436;				// timer para interrumpir cada 3 segundos
 32e:	8c e8       	ldi	r24, 0x8C	; 140
 330:	9b e5       	ldi	r25, 0x5B	; 91
 332:	90 93 89 00 	sts	0x0089, r25	; 0x800089 <__TEXT_REGION_LENGTH__+0x7f0089>
 336:	80 93 88 00 	sts	0x0088, r24	; 0x800088 <__TEXT_REGION_LENGTH__+0x7f0088>
	sei();
 33a:	78 94       	sei
 33c:	08 95       	ret

0000033e <DisplayUpdater>:
}

// Cambio Thanos: poner else if z meter condicion parpadeo>200 en parpadeos >=180 (comprobar porfa)
// Declarada funcion inline, que se llama dentro del main()
inline void DisplayUpdater(){
	if(finalizadoFlag == 1){
 33e:	80 91 04 02 	lds	r24, 0x0204	; 0x800204 <__data_end>
 342:	81 30       	cpi	r24, 0x01	; 1
 344:	09 f0       	breq	.+2      	; 0x348 <DisplayUpdater+0xa>
 346:	b3 c0       	rjmp	.+358    	; 0x4ae <__LOCK_REGION_LENGTH__+0xae>
		parpadeos++;
 348:	80 91 05 02 	lds	r24, 0x0205	; 0x800205 <parpadeos>
 34c:	90 91 06 02 	lds	r25, 0x0206	; 0x800206 <parpadeos+0x1>
 350:	01 96       	adiw	r24, 0x01	; 1
 352:	90 93 06 02 	sts	0x0206, r25	; 0x800206 <parpadeos+0x1>
 356:	80 93 05 02 	sts	0x0205, r24	; 0x800205 <parpadeos>
		if(parpadeos <= 180){
 35a:	80 91 05 02 	lds	r24, 0x0205	; 0x800205 <parpadeos>
 35e:	90 91 06 02 	lds	r25, 0x0206	; 0x800206 <parpadeos+0x1>
 362:	85 3b       	cpi	r24, 0xB5	; 181
 364:	91 05       	cpc	r25, r1
 366:	08 f0       	brcs	.+2      	; 0x36a <DisplayUpdater+0x2c>
 368:	8c c0       	rjmp	.+280    	; 0x482 <__LOCK_REGION_LENGTH__+0x82>
			//Preguntar Jorge pero creo que PORT7B no vale, tiene que ser PORTXi --> PXi para los puertos de E/S. No lo que pone en el datasheet, para este caso.
			PORTB ^= (1<<PB7);					//Máscara en el bit de seleccion para alternarlo cada 5 ms, es decir un refresco de 200 veces/segundo
 36a:	85 b1       	in	r24, 0x05	; 5
 36c:	80 58       	subi	r24, 0x80	; 128
 36e:	85 b9       	out	0x05, r24	; 5
			//Posible bandera 'Selector
			
			if(PINB & (1 << PB7)){				//Si está seleccionado Display 1, decenas
 370:	1f 9b       	sbis	0x03, 7	; 3
 372:	46 c0       	rjmp	.+140    	; 0x400 <__LOCK_REGION_LENGTH__>
				setDisplay(puntuacion%10);
 374:	e0 91 1d 02 	lds	r30, 0x021D	; 0x80021d <puntuacion>
// 	sei();
//
*/

inline void apagarDisplay(){
	PORTB &= ~(1<<PB6)&~(1<<PB5)&~(1<<PB4)&~(1<<PB3)&~(1<<PB2)&~(1<<PB1)&~(1<<PB0);  //Todos los bits de esos puertos a 1_
 378:	85 b1       	in	r24, 0x05	; 5
 37a:	80 78       	andi	r24, 0x80	; 128
 37c:	85 b9       	out	0x05, r24	; 5

inline void setDisplay(int numero){
	//Primero hago un lienzo, en el que pongo los displays apagados durante el ciclo de reloj para después poder poner el numero al gusto
	apagarDisplay();
	//PORTB = 0bX0000000
	switch(numero)
 37e:	8d ec       	ldi	r24, 0xCD	; 205
 380:	e8 9f       	mul	r30, r24
 382:	81 2d       	mov	r24, r1
 384:	11 24       	eor	r1, r1
 386:	86 95       	lsr	r24
 388:	86 95       	lsr	r24
 38a:	86 95       	lsr	r24
 38c:	88 0f       	add	r24, r24
 38e:	98 2f       	mov	r25, r24
 390:	99 0f       	add	r25, r25
 392:	99 0f       	add	r25, r25
 394:	89 0f       	add	r24, r25
 396:	e8 1b       	sub	r30, r24
 398:	8e 2f       	mov	r24, r30
 39a:	90 e0       	ldi	r25, 0x00	; 0
 39c:	8a 30       	cpi	r24, 0x0A	; 10
 39e:	91 05       	cpc	r25, r1
 3a0:	68 f5       	brcc	.+90     	; 0x3fc <DisplayUpdater+0xbe>
 3a2:	fc 01       	movw	r30, r24
 3a4:	ee 58       	subi	r30, 0x8E	; 142
 3a6:	ff 4f       	sbci	r31, 0xFF	; 255
 3a8:	0c 94 7c 07 	jmp	0xef8	; 0xef8 <__tablejump2__>
	{
		case 0:	//0b00111111;
		PORTB |= (1<<PB0)|(1<<PB1)|(1<<PB2)|(1<<PB3)|(1<<PB4)|(1<<PB5);
 3ac:	85 b1       	in	r24, 0x05	; 5
 3ae:	8f 63       	ori	r24, 0x3F	; 63
 3b0:	85 b9       	out	0x05, r24	; 5
 3b2:	08 95       	ret
		break;
		case 1:	//0b00000110;
		PORTB |= (1<<PB1)|(1<<PB2);
 3b4:	85 b1       	in	r24, 0x05	; 5
 3b6:	86 60       	ori	r24, 0x06	; 6
 3b8:	85 b9       	out	0x05, r24	; 5
 3ba:	08 95       	ret
		break;
		case 2: //0b01011011;
		PORTB |= (1<<PB0)|(1<<PB1)|(1<<PB3)|(1<<PB4)|(1<<PB6);
 3bc:	85 b1       	in	r24, 0x05	; 5
 3be:	8b 65       	ori	r24, 0x5B	; 91
 3c0:	85 b9       	out	0x05, r24	; 5
 3c2:	08 95       	ret
		break;
		case 3: //0b01001111;
		PORTB |= (1<<PB6)|(1<<PB3)|(1<<PB2)|(1<<PB1)|(1<<PB0);
 3c4:	85 b1       	in	r24, 0x05	; 5
 3c6:	8f 64       	ori	r24, 0x4F	; 79
 3c8:	85 b9       	out	0x05, r24	; 5
 3ca:	08 95       	ret
		break;
		case 4: //0b01100110;
		PORTB |= (1<<PB1)|(1<<PB2)|(1<<PB5)|(1<<PB6);
 3cc:	85 b1       	in	r24, 0x05	; 5
 3ce:	86 66       	ori	r24, 0x66	; 102
 3d0:	85 b9       	out	0x05, r24	; 5
 3d2:	08 95       	ret
		break;
		case 5: //0b01101101;
		PORTB |= (1<<PB0)|(1<<PB2)|(1<<PB3)|(1<<PB5)|(1<<PB6);
 3d4:	85 b1       	in	r24, 0x05	; 5
 3d6:	8d 66       	ori	r24, 0x6D	; 109
 3d8:	85 b9       	out	0x05, r24	; 5
 3da:	08 95       	ret
		break;
		case 6: //0b01111101;
		PORTB |= (1<<PB0)|(1<<PB5)|(1<<PB2)|(1<<PB3)|(1<<PB4)|(1<<PB6);
 3dc:	85 b1       	in	r24, 0x05	; 5
 3de:	8d 67       	ori	r24, 0x7D	; 125
 3e0:	85 b9       	out	0x05, r24	; 5
 3e2:	08 95       	ret
		break;
		case 7: //0b00000111;
		PORTB |= (1<<PB0)|(1<<PB1)|(1<<PB2);
 3e4:	85 b1       	in	r24, 0x05	; 5
 3e6:	87 60       	ori	r24, 0x07	; 7
 3e8:	85 b9       	out	0x05, r24	; 5
 3ea:	08 95       	ret
		break;
		case 8: //0b01111111;
		PORTB |= (1<<PB0)|(1<<PB1)|(1<<PB2)|(1<<PB3)|(1<<PB4)|(1<<PB5)|(1<<PB6);
 3ec:	85 b1       	in	r24, 0x05	; 5
 3ee:	8f 67       	ori	r24, 0x7F	; 127
 3f0:	85 b9       	out	0x05, r24	; 5
 3f2:	08 95       	ret
		break;
		case 9: //0b01101111;
		PORTB |= (1<<PB0)|(1<<PB1)|(1<<PB2)|(1<<PB5)|(1<<PB6);
 3f4:	85 b1       	in	r24, 0x05	; 5
 3f6:	87 66       	ori	r24, 0x67	; 103
 3f8:	85 b9       	out	0x05, r24	; 5
 3fa:	08 95       	ret
		break;
		default:
		PORTB |= (1<<PB6);
 3fc:	2e 9a       	sbi	0x05, 6	; 5
 3fe:	08 95       	ret
			
			if(PINB & (1 << PB7)){				//Si está seleccionado Display 1, decenas
				setDisplay(puntuacion%10);
			}
			else{								//Si esta seleccionado Display 0, unidades
				setDisplay(puntuacion/10);
 400:	80 91 1d 02 	lds	r24, 0x021D	; 0x80021d <puntuacion>
// 	sei();
//
*/

inline void apagarDisplay(){
	PORTB &= ~(1<<PB6)&~(1<<PB5)&~(1<<PB4)&~(1<<PB3)&~(1<<PB2)&~(1<<PB1)&~(1<<PB0);  //Todos los bits de esos puertos a 1_
 404:	95 b1       	in	r25, 0x05	; 5
 406:	90 78       	andi	r25, 0x80	; 128
 408:	95 b9       	out	0x05, r25	; 5

inline void setDisplay(int numero){
	//Primero hago un lienzo, en el que pongo los displays apagados durante el ciclo de reloj para después poder poner el numero al gusto
	apagarDisplay();
	//PORTB = 0bX0000000
	switch(numero)
 40a:	ed ec       	ldi	r30, 0xCD	; 205
 40c:	8e 9f       	mul	r24, r30
 40e:	81 2d       	mov	r24, r1
 410:	11 24       	eor	r1, r1
 412:	e8 2f       	mov	r30, r24
 414:	e6 95       	lsr	r30
 416:	e6 95       	lsr	r30
 418:	e6 95       	lsr	r30
 41a:	8e 2f       	mov	r24, r30
 41c:	90 e0       	ldi	r25, 0x00	; 0
 41e:	8a 30       	cpi	r24, 0x0A	; 10
 420:	91 05       	cpc	r25, r1
 422:	68 f5       	brcc	.+90     	; 0x47e <__LOCK_REGION_LENGTH__+0x7e>
 424:	fc 01       	movw	r30, r24
 426:	e4 58       	subi	r30, 0x84	; 132
 428:	ff 4f       	sbci	r31, 0xFF	; 255
 42a:	0c 94 7c 07 	jmp	0xef8	; 0xef8 <__tablejump2__>
	{
		case 0:	//0b00111111;
		PORTB |= (1<<PB0)|(1<<PB1)|(1<<PB2)|(1<<PB3)|(1<<PB4)|(1<<PB5);
 42e:	85 b1       	in	r24, 0x05	; 5
 430:	8f 63       	ori	r24, 0x3F	; 63
 432:	85 b9       	out	0x05, r24	; 5
 434:	08 95       	ret
		break;
		case 1:	//0b00000110;
		PORTB |= (1<<PB1)|(1<<PB2);
 436:	85 b1       	in	r24, 0x05	; 5
 438:	86 60       	ori	r24, 0x06	; 6
 43a:	85 b9       	out	0x05, r24	; 5
 43c:	08 95       	ret
		break;
		case 2: //0b01011011;
		PORTB |= (1<<PB0)|(1<<PB1)|(1<<PB3)|(1<<PB4)|(1<<PB6);
 43e:	85 b1       	in	r24, 0x05	; 5
 440:	8b 65       	ori	r24, 0x5B	; 91
 442:	85 b9       	out	0x05, r24	; 5
 444:	08 95       	ret
		break;
		case 3: //0b01001111;
		PORTB |= (1<<PB6)|(1<<PB3)|(1<<PB2)|(1<<PB1)|(1<<PB0);
 446:	85 b1       	in	r24, 0x05	; 5
 448:	8f 64       	ori	r24, 0x4F	; 79
 44a:	85 b9       	out	0x05, r24	; 5
 44c:	08 95       	ret
		break;
		case 4: //0b01100110;
		PORTB |= (1<<PB1)|(1<<PB2)|(1<<PB5)|(1<<PB6);
 44e:	85 b1       	in	r24, 0x05	; 5
 450:	86 66       	ori	r24, 0x66	; 102
 452:	85 b9       	out	0x05, r24	; 5
 454:	08 95       	ret
		break;
		case 5: //0b01101101;
		PORTB |= (1<<PB0)|(1<<PB2)|(1<<PB3)|(1<<PB5)|(1<<PB6);
 456:	85 b1       	in	r24, 0x05	; 5
 458:	8d 66       	ori	r24, 0x6D	; 109
 45a:	85 b9       	out	0x05, r24	; 5
 45c:	08 95       	ret
		break;
		case 6: //0b01111101;
		PORTB |= (1<<PB0)|(1<<PB5)|(1<<PB2)|(1<<PB3)|(1<<PB4)|(1<<PB6);
 45e:	85 b1       	in	r24, 0x05	; 5
 460:	8d 67       	ori	r24, 0x7D	; 125
 462:	85 b9       	out	0x05, r24	; 5
 464:	08 95       	ret
		break;
		case 7: //0b00000111;
		PORTB |= (1<<PB0)|(1<<PB1)|(1<<PB2);
 466:	85 b1       	in	r24, 0x05	; 5
 468:	87 60       	ori	r24, 0x07	; 7
 46a:	85 b9       	out	0x05, r24	; 5
 46c:	08 95       	ret
		break;
		case 8: //0b01111111;
		PORTB |= (1<<PB0)|(1<<PB1)|(1<<PB2)|(1<<PB3)|(1<<PB4)|(1<<PB5)|(1<<PB6);
 46e:	85 b1       	in	r24, 0x05	; 5
 470:	8f 67       	ori	r24, 0x7F	; 127
 472:	85 b9       	out	0x05, r24	; 5
 474:	08 95       	ret
		break;
		case 9: //0b01101111;
		PORTB |= (1<<PB0)|(1<<PB1)|(1<<PB2)|(1<<PB5)|(1<<PB6);
 476:	85 b1       	in	r24, 0x05	; 5
 478:	87 66       	ori	r24, 0x67	; 103
 47a:	85 b9       	out	0x05, r24	; 5
 47c:	08 95       	ret
		break;
		default:
		PORTB |= (1<<PB6);
 47e:	2e 9a       	sbi	0x05, 6	; 5
 480:	08 95       	ret
			}
			else{								//Si esta seleccionado Display 0, unidades
				setDisplay(puntuacion/10);
			}
		}
		else if(parpadeos >= 180){
 482:	80 91 05 02 	lds	r24, 0x0205	; 0x800205 <parpadeos>
 486:	90 91 06 02 	lds	r25, 0x0206	; 0x800206 <parpadeos+0x1>
 48a:	84 3b       	cpi	r24, 0xB4	; 180
 48c:	91 05       	cpc	r25, r1
 48e:	08 f4       	brcc	.+2      	; 0x492 <__LOCK_REGION_LENGTH__+0x92>
 490:	99 c0       	rjmp	.+306    	; 0x5c4 <__LOCK_REGION_LENGTH__+0x1c4>
			PORTB = 0x00;  // Apagados y DS da igual porque al estar apagados da igual a que display este apuntando
 492:	15 b8       	out	0x05, r1	; 5
			if(parpadeos == 200){
 494:	80 91 05 02 	lds	r24, 0x0205	; 0x800205 <parpadeos>
 498:	90 91 06 02 	lds	r25, 0x0206	; 0x800206 <parpadeos+0x1>
 49c:	88 3c       	cpi	r24, 0xC8	; 200
 49e:	91 05       	cpc	r25, r1
 4a0:	09 f0       	breq	.+2      	; 0x4a4 <__LOCK_REGION_LENGTH__+0xa4>
 4a2:	90 c0       	rjmp	.+288    	; 0x5c4 <__LOCK_REGION_LENGTH__+0x1c4>
				parpadeos = 0; // Reiniciar el contador de parpadeos
 4a4:	10 92 06 02 	sts	0x0206, r1	; 0x800206 <parpadeos+0x1>
 4a8:	10 92 05 02 	sts	0x0205, r1	; 0x800205 <parpadeos>
 4ac:	08 95       	ret
			}
		}
	}
	else{
		//Preguntar Jorge pero creo que PORT7B no vale, tiene que ser PORTXi --> PXi para los puertos de E/S. No lo que pone en el datasheet, para este caso.
		PORTB ^= (1<<PB7);					//Máscara en el bit de seleccion para alternarlo cada 5 ms, es decir un refresco de 200 veces/segundo
 4ae:	85 b1       	in	r24, 0x05	; 5
 4b0:	80 58       	subi	r24, 0x80	; 128
 4b2:	85 b9       	out	0x05, r24	; 5
		//Posible bandera 'Selector
		
		if(~PINB & (1 << PB7)){				//Si está seleccionado Display 1, decenas
 4b4:	1f 99       	sbic	0x03, 7	; 3
 4b6:	41 c0       	rjmp	.+130    	; 0x53a <__LOCK_REGION_LENGTH__+0x13a>
			setDisplay(puntuacion/10);
 4b8:	80 91 1d 02 	lds	r24, 0x021D	; 0x80021d <puntuacion>
// 	sei();
//
*/

inline void apagarDisplay(){
	PORTB &= ~(1<<PB6)&~(1<<PB5)&~(1<<PB4)&~(1<<PB3)&~(1<<PB2)&~(1<<PB1)&~(1<<PB0);  //Todos los bits de esos puertos a 1_
 4bc:	95 b1       	in	r25, 0x05	; 5
 4be:	90 78       	andi	r25, 0x80	; 128
 4c0:	95 b9       	out	0x05, r25	; 5

inline void setDisplay(int numero){
	//Primero hago un lienzo, en el que pongo los displays apagados durante el ciclo de reloj para después poder poner el numero al gusto
	apagarDisplay();
	//PORTB = 0bX0000000
	switch(numero)
 4c2:	ed ec       	ldi	r30, 0xCD	; 205
 4c4:	8e 9f       	mul	r24, r30
 4c6:	81 2d       	mov	r24, r1
 4c8:	11 24       	eor	r1, r1
 4ca:	e8 2f       	mov	r30, r24
 4cc:	e6 95       	lsr	r30
 4ce:	e6 95       	lsr	r30
 4d0:	e6 95       	lsr	r30
 4d2:	8e 2f       	mov	r24, r30
 4d4:	90 e0       	ldi	r25, 0x00	; 0
 4d6:	8a 30       	cpi	r24, 0x0A	; 10
 4d8:	91 05       	cpc	r25, r1
 4da:	68 f5       	brcc	.+90     	; 0x536 <__LOCK_REGION_LENGTH__+0x136>
 4dc:	fc 01       	movw	r30, r24
 4de:	ea 57       	subi	r30, 0x7A	; 122
 4e0:	ff 4f       	sbci	r31, 0xFF	; 255
 4e2:	0c 94 7c 07 	jmp	0xef8	; 0xef8 <__tablejump2__>
	{
		case 0:	//0b00111111;
		PORTB |= (1<<PB0)|(1<<PB1)|(1<<PB2)|(1<<PB3)|(1<<PB4)|(1<<PB5);
 4e6:	85 b1       	in	r24, 0x05	; 5
 4e8:	8f 63       	ori	r24, 0x3F	; 63
 4ea:	85 b9       	out	0x05, r24	; 5
 4ec:	08 95       	ret
		break;
		case 1:	//0b00000110;
		PORTB |= (1<<PB1)|(1<<PB2);
 4ee:	85 b1       	in	r24, 0x05	; 5
 4f0:	86 60       	ori	r24, 0x06	; 6
 4f2:	85 b9       	out	0x05, r24	; 5
 4f4:	08 95       	ret
		break;
		case 2: //0b01011011;
		PORTB |= (1<<PB0)|(1<<PB1)|(1<<PB3)|(1<<PB4)|(1<<PB6);
 4f6:	85 b1       	in	r24, 0x05	; 5
 4f8:	8b 65       	ori	r24, 0x5B	; 91
 4fa:	85 b9       	out	0x05, r24	; 5
 4fc:	08 95       	ret
		break;
		case 3: //0b01001111;
		PORTB |= (1<<PB6)|(1<<PB3)|(1<<PB2)|(1<<PB1)|(1<<PB0);
 4fe:	85 b1       	in	r24, 0x05	; 5
 500:	8f 64       	ori	r24, 0x4F	; 79
 502:	85 b9       	out	0x05, r24	; 5
 504:	08 95       	ret
		break;
		case 4: //0b01100110;
		PORTB |= (1<<PB1)|(1<<PB2)|(1<<PB5)|(1<<PB6);
 506:	85 b1       	in	r24, 0x05	; 5
 508:	86 66       	ori	r24, 0x66	; 102
 50a:	85 b9       	out	0x05, r24	; 5
 50c:	08 95       	ret
		break;
		case 5: //0b01101101;
		PORTB |= (1<<PB0)|(1<<PB2)|(1<<PB3)|(1<<PB5)|(1<<PB6);
 50e:	85 b1       	in	r24, 0x05	; 5
 510:	8d 66       	ori	r24, 0x6D	; 109
 512:	85 b9       	out	0x05, r24	; 5
 514:	08 95       	ret
		break;
		case 6: //0b01111101;
		PORTB |= (1<<PB0)|(1<<PB5)|(1<<PB2)|(1<<PB3)|(1<<PB4)|(1<<PB6);
 516:	85 b1       	in	r24, 0x05	; 5
 518:	8d 67       	ori	r24, 0x7D	; 125
 51a:	85 b9       	out	0x05, r24	; 5
 51c:	08 95       	ret
		break;
		case 7: //0b00000111;
		PORTB |= (1<<PB0)|(1<<PB1)|(1<<PB2);
 51e:	85 b1       	in	r24, 0x05	; 5
 520:	87 60       	ori	r24, 0x07	; 7
 522:	85 b9       	out	0x05, r24	; 5
 524:	08 95       	ret
		break;
		case 8: //0b01111111;
		PORTB |= (1<<PB0)|(1<<PB1)|(1<<PB2)|(1<<PB3)|(1<<PB4)|(1<<PB5)|(1<<PB6);
 526:	85 b1       	in	r24, 0x05	; 5
 528:	8f 67       	ori	r24, 0x7F	; 127
 52a:	85 b9       	out	0x05, r24	; 5
 52c:	08 95       	ret
		break;
		case 9: //0b01101111;
		PORTB |= (1<<PB0)|(1<<PB1)|(1<<PB2)|(1<<PB5)|(1<<PB6);
 52e:	85 b1       	in	r24, 0x05	; 5
 530:	87 66       	ori	r24, 0x67	; 103
 532:	85 b9       	out	0x05, r24	; 5
 534:	08 95       	ret
		break;
		default:
		PORTB |= (1<<PB6);
 536:	2e 9a       	sbi	0x05, 6	; 5
 538:	08 95       	ret
		
		if(~PINB & (1 << PB7)){				//Si está seleccionado Display 1, decenas
			setDisplay(puntuacion/10);
		}
		else{								//Si esta seleccionado Display 0, unidades
			setDisplay(puntuacion%10);
 53a:	e0 91 1d 02 	lds	r30, 0x021D	; 0x80021d <puntuacion>
// 	sei();
//
*/

inline void apagarDisplay(){
	PORTB &= ~(1<<PB6)&~(1<<PB5)&~(1<<PB4)&~(1<<PB3)&~(1<<PB2)&~(1<<PB1)&~(1<<PB0);  //Todos los bits de esos puertos a 1_
 53e:	85 b1       	in	r24, 0x05	; 5
 540:	80 78       	andi	r24, 0x80	; 128
 542:	85 b9       	out	0x05, r24	; 5

inline void setDisplay(int numero){
	//Primero hago un lienzo, en el que pongo los displays apagados durante el ciclo de reloj para después poder poner el numero al gusto
	apagarDisplay();
	//PORTB = 0bX0000000
	switch(numero)
 544:	8d ec       	ldi	r24, 0xCD	; 205
 546:	e8 9f       	mul	r30, r24
 548:	81 2d       	mov	r24, r1
 54a:	11 24       	eor	r1, r1
 54c:	86 95       	lsr	r24
 54e:	86 95       	lsr	r24
 550:	86 95       	lsr	r24
 552:	88 0f       	add	r24, r24
 554:	98 2f       	mov	r25, r24
 556:	99 0f       	add	r25, r25
 558:	99 0f       	add	r25, r25
 55a:	89 0f       	add	r24, r25
 55c:	e8 1b       	sub	r30, r24
 55e:	8e 2f       	mov	r24, r30
 560:	90 e0       	ldi	r25, 0x00	; 0
 562:	8a 30       	cpi	r24, 0x0A	; 10
 564:	91 05       	cpc	r25, r1
 566:	68 f5       	brcc	.+90     	; 0x5c2 <__LOCK_REGION_LENGTH__+0x1c2>
 568:	fc 01       	movw	r30, r24
 56a:	e0 57       	subi	r30, 0x70	; 112
 56c:	ff 4f       	sbci	r31, 0xFF	; 255
 56e:	0c 94 7c 07 	jmp	0xef8	; 0xef8 <__tablejump2__>
	{
		case 0:	//0b00111111;
		PORTB |= (1<<PB0)|(1<<PB1)|(1<<PB2)|(1<<PB3)|(1<<PB4)|(1<<PB5);
 572:	85 b1       	in	r24, 0x05	; 5
 574:	8f 63       	ori	r24, 0x3F	; 63
 576:	85 b9       	out	0x05, r24	; 5
 578:	08 95       	ret
		break;
		case 1:	//0b00000110;
		PORTB |= (1<<PB1)|(1<<PB2);
 57a:	85 b1       	in	r24, 0x05	; 5
 57c:	86 60       	ori	r24, 0x06	; 6
 57e:	85 b9       	out	0x05, r24	; 5
 580:	08 95       	ret
		break;
		case 2: //0b01011011;
		PORTB |= (1<<PB0)|(1<<PB1)|(1<<PB3)|(1<<PB4)|(1<<PB6);
 582:	85 b1       	in	r24, 0x05	; 5
 584:	8b 65       	ori	r24, 0x5B	; 91
 586:	85 b9       	out	0x05, r24	; 5
 588:	08 95       	ret
		break;
		case 3: //0b01001111;
		PORTB |= (1<<PB6)|(1<<PB3)|(1<<PB2)|(1<<PB1)|(1<<PB0);
 58a:	85 b1       	in	r24, 0x05	; 5
 58c:	8f 64       	ori	r24, 0x4F	; 79
 58e:	85 b9       	out	0x05, r24	; 5
 590:	08 95       	ret
		break;
		case 4: //0b01100110;
		PORTB |= (1<<PB1)|(1<<PB2)|(1<<PB5)|(1<<PB6);
 592:	85 b1       	in	r24, 0x05	; 5
 594:	86 66       	ori	r24, 0x66	; 102
 596:	85 b9       	out	0x05, r24	; 5
 598:	08 95       	ret
		break;
		case 5: //0b01101101;
		PORTB |= (1<<PB0)|(1<<PB2)|(1<<PB3)|(1<<PB5)|(1<<PB6);
 59a:	85 b1       	in	r24, 0x05	; 5
 59c:	8d 66       	ori	r24, 0x6D	; 109
 59e:	85 b9       	out	0x05, r24	; 5
 5a0:	08 95       	ret
		break;
		case 6: //0b01111101;
		PORTB |= (1<<PB0)|(1<<PB5)|(1<<PB2)|(1<<PB3)|(1<<PB4)|(1<<PB6);
 5a2:	85 b1       	in	r24, 0x05	; 5
 5a4:	8d 67       	ori	r24, 0x7D	; 125
 5a6:	85 b9       	out	0x05, r24	; 5
 5a8:	08 95       	ret
		break;
		case 7: //0b00000111;
		PORTB |= (1<<PB0)|(1<<PB1)|(1<<PB2);
 5aa:	85 b1       	in	r24, 0x05	; 5
 5ac:	87 60       	ori	r24, 0x07	; 7
 5ae:	85 b9       	out	0x05, r24	; 5
 5b0:	08 95       	ret
		break;
		case 8: //0b01111111;
		PORTB |= (1<<PB0)|(1<<PB1)|(1<<PB2)|(1<<PB3)|(1<<PB4)|(1<<PB5)|(1<<PB6);
 5b2:	85 b1       	in	r24, 0x05	; 5
 5b4:	8f 67       	ori	r24, 0x7F	; 127
 5b6:	85 b9       	out	0x05, r24	; 5
 5b8:	08 95       	ret
		break;
		case 9: //0b01101111;
		PORTB |= (1<<PB0)|(1<<PB1)|(1<<PB2)|(1<<PB5)|(1<<PB6);
 5ba:	85 b1       	in	r24, 0x05	; 5
 5bc:	87 66       	ori	r24, 0x67	; 103
 5be:	85 b9       	out	0x05, r24	; 5
 5c0:	08 95       	ret
		break;
		default:
		PORTB |= (1<<PB6);
 5c2:	2e 9a       	sbi	0x05, 6	; 5
 5c4:	08 95       	ret

000005c6 <setupEC>:

inline void subeER(){
	if(ERpos==0){								//Subimos el ER sin bloquear el programa.
		clearBit(M5_enPORT,M5_en_X);			//M5_enable off.
		setBit(M5_diPORT,M5_di_X);				//Dirección ascendente	(1);
		setBit(M5_enPORT,M5_en_X);				//M5_enable on.
 5c6:	e7 e0       	ldi	r30, 0x07	; 7
 5c8:	f1 e0       	ldi	r31, 0x01	; 1
 5ca:	80 81       	ld	r24, Z
 5cc:	80 64       	ori	r24, 0x40	; 64
 5ce:	80 83       	st	Z, r24
 5d0:	ea e0       	ldi	r30, 0x0A	; 10
 5d2:	f1 e0       	ldi	r31, 0x01	; 1
 5d4:	80 81       	ld	r24, Z
 5d6:	81 60       	ori	r24, 0x01	; 1
 5d8:	80 83       	st	Z, r24
 5da:	56 98       	cbi	0x0a, 6	; 10
 5dc:	eb e0       	ldi	r30, 0x0B	; 11
 5de:	f1 e0       	ldi	r31, 0x01	; 1
 5e0:	80 81       	ld	r24, Z
 5e2:	8e 7f       	andi	r24, 0xFE	; 254
 5e4:	80 83       	st	Z, r24
 5e6:	08 95       	ret

000005e8 <setupER>:
 5e8:	55 9a       	sbi	0x0a, 5	; 10
 5ea:	57 9a       	sbi	0x0a, 7	; 10
 5ec:	e9 e6       	ldi	r30, 0x69	; 105
 5ee:	f0 e0       	ldi	r31, 0x00	; 0
 5f0:	80 81       	ld	r24, Z
 5f2:	80 68       	ori	r24, 0x80	; 128
 5f4:	80 83       	st	Z, r24
 5f6:	eb 9a       	sbi	0x1d, 3	; 29
 5f8:	5f 98       	cbi	0x0b, 7	; 11
 5fa:	08 95       	ret

000005fc <setupElevadores>:
 5fc:	f8 94       	cli
 5fe:	0e 94 e3 02 	call	0x5c6	; 0x5c6 <setupEC>
 602:	0e 94 f4 02 	call	0x5e8	; 0x5e8 <setupER>
 606:	78 94       	sei
 608:	08 95       	ret

0000060a <homeEC>:
 60a:	eb e0       	ldi	r30, 0x0B	; 11
 60c:	f1 e0       	ldi	r31, 0x01	; 1
 60e:	80 81       	ld	r24, Z
 610:	8e 7f       	andi	r24, 0xFE	; 254
 612:	80 83       	st	Z, r24
 614:	a8 e0       	ldi	r26, 0x08	; 8
 616:	b1 e0       	ldi	r27, 0x01	; 1
 618:	8c 91       	ld	r24, X
 61a:	80 64       	ori	r24, 0x40	; 64
 61c:	8c 93       	st	X, r24
 61e:	80 81       	ld	r24, Z
 620:	81 60       	ori	r24, 0x01	; 1
 622:	80 83       	st	Z, r24
 624:	2f ef       	ldi	r18, 0xFF	; 255
 626:	83 ed       	ldi	r24, 0xD3	; 211
 628:	90 e3       	ldi	r25, 0x30	; 48
 62a:	21 50       	subi	r18, 0x01	; 1
 62c:	80 40       	sbci	r24, 0x00	; 0
 62e:	90 40       	sbci	r25, 0x00	; 0
 630:	e1 f7       	brne	.-8      	; 0x62a <homeEC+0x20>
 632:	00 c0       	rjmp	.+0      	; 0x634 <homeEC+0x2a>
 634:	00 00       	nop
 636:	80 81       	ld	r24, Z
 638:	8e 7f       	andi	r24, 0xFE	; 254
 63a:	80 83       	st	Z, r24
 63c:	81 e0       	ldi	r24, 0x01	; 1
 63e:	80 93 20 02 	sts	0x0220, r24	; 0x800220 <ECPos>
 642:	08 95       	ret

00000644 <homeER>:
 644:	5f 98       	cbi	0x0b, 7	; 11
 646:	5d 98       	cbi	0x0b, 5	; 11
 648:	5f 9a       	sbi	0x0b, 7	; 11
 64a:	2f ef       	ldi	r18, 0xFF	; 255
 64c:	8d e3       	ldi	r24, 0x3D	; 61
 64e:	99 e4       	ldi	r25, 0x49	; 73
 650:	21 50       	subi	r18, 0x01	; 1
 652:	80 40       	sbci	r24, 0x00	; 0
 654:	90 40       	sbci	r25, 0x00	; 0
 656:	e1 f7       	brne	.-8      	; 0x650 <homeER+0xc>
 658:	00 c0       	rjmp	.+0      	; 0x65a <homeER+0x16>
 65a:	00 00       	nop
 65c:	5f 98       	cbi	0x0b, 7	; 11
 65e:	10 92 21 02 	sts	0x0221, r1	; 0x800221 <ERpos>
 662:	08 95       	ret

00000664 <bajaEC>:
 664:	eb e0       	ldi	r30, 0x0B	; 11
 666:	f1 e0       	ldi	r31, 0x01	; 1
 668:	80 81       	ld	r24, Z
 66a:	8e 7f       	andi	r24, 0xFE	; 254
 66c:	80 83       	st	Z, r24
 66e:	80 91 20 02 	lds	r24, 0x0220	; 0x800220 <ECPos>
 672:	81 30       	cpi	r24, 0x01	; 1
 674:	a9 f4       	brne	.+42     	; 0x6a0 <bajaEC+0x3c>
 676:	e8 e0       	ldi	r30, 0x08	; 8
 678:	f1 e0       	ldi	r31, 0x01	; 1
 67a:	80 81       	ld	r24, Z
 67c:	8f 7b       	andi	r24, 0xBF	; 191
 67e:	80 83       	st	Z, r24
 680:	eb e0       	ldi	r30, 0x0B	; 11
 682:	f1 e0       	ldi	r31, 0x01	; 1
 684:	80 81       	ld	r24, Z
 686:	81 60       	ori	r24, 0x01	; 1
 688:	80 83       	st	Z, r24
 68a:	4e 9b       	sbis	0x09, 6	; 9
 68c:	fe cf       	rjmp	.-4      	; 0x68a <bajaEC+0x26>
 68e:	4e 99       	sbic	0x09, 6	; 9
 690:	fe cf       	rjmp	.-4      	; 0x68e <bajaEC+0x2a>
 692:	eb e0       	ldi	r30, 0x0B	; 11
 694:	f1 e0       	ldi	r31, 0x01	; 1
 696:	80 81       	ld	r24, Z
 698:	8e 7f       	andi	r24, 0xFE	; 254
 69a:	80 83       	st	Z, r24
 69c:	10 92 20 02 	sts	0x0220, r1	; 0x800220 <ECPos>
 6a0:	08 95       	ret

000006a2 <subeEC>:
 6a2:	eb e0       	ldi	r30, 0x0B	; 11
 6a4:	f1 e0       	ldi	r31, 0x01	; 1
 6a6:	80 81       	ld	r24, Z
 6a8:	8e 7f       	andi	r24, 0xFE	; 254
 6aa:	80 83       	st	Z, r24
 6ac:	80 91 20 02 	lds	r24, 0x0220	; 0x800220 <ECPos>
 6b0:	81 11       	cpse	r24, r1
 6b2:	16 c0       	rjmp	.+44     	; 0x6e0 <subeEC+0x3e>
 6b4:	e8 e0       	ldi	r30, 0x08	; 8
 6b6:	f1 e0       	ldi	r31, 0x01	; 1
 6b8:	80 81       	ld	r24, Z
 6ba:	80 64       	ori	r24, 0x40	; 64
 6bc:	80 83       	st	Z, r24
 6be:	eb e0       	ldi	r30, 0x0B	; 11
 6c0:	f1 e0       	ldi	r31, 0x01	; 1
 6c2:	80 81       	ld	r24, Z
 6c4:	81 60       	ori	r24, 0x01	; 1
 6c6:	80 83       	st	Z, r24
 6c8:	4e 9b       	sbis	0x09, 6	; 9
 6ca:	fe cf       	rjmp	.-4      	; 0x6c8 <subeEC+0x26>
 6cc:	4e 99       	sbic	0x09, 6	; 9
 6ce:	fe cf       	rjmp	.-4      	; 0x6cc <subeEC+0x2a>
 6d0:	eb e0       	ldi	r30, 0x0B	; 11
 6d2:	f1 e0       	ldi	r31, 0x01	; 1
 6d4:	80 81       	ld	r24, Z
 6d6:	8e 7f       	andi	r24, 0xFE	; 254
 6d8:	80 83       	st	Z, r24
 6da:	81 e0       	ldi	r24, 0x01	; 1
 6dc:	80 93 20 02 	sts	0x0220, r24	; 0x800220 <ECPos>
 6e0:	08 95       	ret

000006e2 <bajaER>:
 6e2:	80 91 21 02 	lds	r24, 0x0221	; 0x800221 <ERpos>
 6e6:	81 30       	cpi	r24, 0x01	; 1
 6e8:	19 f4       	brne	.+6      	; 0x6f0 <bajaER+0xe>
 6ea:	5f 98       	cbi	0x0b, 7	; 11
 6ec:	5d 98       	cbi	0x0b, 5	; 11
 6ee:	5f 9a       	sbi	0x0b, 7	; 11
 6f0:	08 95       	ret

000006f2 <recarga>:
	}
}
inline void recarga(){								//El elevador sube y cuando llegue arriba bajará.
	rutina=1;									//Bandera para que baje al llegar arriba.
 6f2:	81 e0       	ldi	r24, 0x01	; 1
 6f4:	80 93 09 02 	sts	0x0209, r24	; 0x800209 <rutina>
	}
}


inline void subeER(){
	if(ERpos==0){								//Subimos el ER sin bloquear el programa.
 6f8:	80 91 21 02 	lds	r24, 0x0221	; 0x800221 <ERpos>
 6fc:	81 11       	cpse	r24, r1
 6fe:	03 c0       	rjmp	.+6      	; 0x706 <recarga+0x14>
		clearBit(M5_enPORT,M5_en_X);			//M5_enable off.
 700:	5f 98       	cbi	0x0b, 7	; 11
		setBit(M5_diPORT,M5_di_X);				//Dirección ascendente	(1);
 702:	5d 9a       	sbi	0x0b, 5	; 11
		setBit(M5_enPORT,M5_en_X);				//M5_enable on.
 704:	5f 9a       	sbi	0x0b, 7	; 11
 706:	08 95       	ret

00000708 <OnSW5Interruption>:


//INTERRUPCIONES//

inline void OnSW5Interruption(){						//Interrupción para gestionar las paradas del ER.
		clearBit(EIMSK,3);						//Deshabilitamos la interrupción.
 708:	eb 98       	cbi	0x1d, 3	; 29
		setBit(EIFR,3);							//Limpiamos las banderas de la interrupción.
 70a:	e3 9a       	sbi	0x1c, 3	; 28
		Time=0;									//Despues de un tiempo la volveremos a habilitar (antirrebotes).
 70c:	10 92 08 02 	sts	0x0208, r1	; 0x800208 <Time+0x1>
 710:	10 92 07 02 	sts	0x0207, r1	; 0x800207 <Time>
		if(rutina==0){							//Si queremos que pare.
 714:	80 91 09 02 	lds	r24, 0x0209	; 0x800209 <rutina>
 718:	81 11       	cpse	r24, r1
 71a:	0c c0       	rjmp	.+24     	; 0x734 <OnSW5Interruption+0x2c>
			if(readBit(M5_diPIN,M5_di_X)==0){	//Si estaba bajando.
 71c:	4d 99       	sbic	0x09, 5	; 9
 71e:	03 c0       	rjmp	.+6      	; 0x726 <OnSW5Interruption+0x1e>
				ERpos=0;						//Está abajo.
 720:	10 92 21 02 	sts	0x0221, r1	; 0x800221 <ERpos>
				clearBit(M5_enPORT,M5_en_X);	//M5_enable off.
 724:	5f 98       	cbi	0x0b, 7	; 11
			}
			if(readBit(M5_diPIN,M5_di_X)==1){	//Si estaba subiendo.
 726:	4d 9b       	sbis	0x09, 5	; 9
 728:	14 c0       	rjmp	.+40     	; 0x752 <OnSW5Interruption+0x4a>
				ERpos=1;						//Está arriba.
 72a:	81 e0       	ldi	r24, 0x01	; 1
 72c:	80 93 21 02 	sts	0x0221, r24	; 0x800221 <ERpos>
				clearBit(M5_enPORT,M5_en_X);	//M5_enable off.
 730:	5f 98       	cbi	0x0b, 7	; 11
 732:	08 95       	ret
			}
		}
		else if (rutina==1){					//Si queremos que baje en lugar de que pare.
 734:	80 91 09 02 	lds	r24, 0x0209	; 0x800209 <rutina>
 738:	81 30       	cpi	r24, 0x01	; 1
 73a:	59 f4       	brne	.+22     	; 0x752 <OnSW5Interruption+0x4a>
			ERpos=1;							//Está arriba.
 73c:	80 93 21 02 	sts	0x0221, r24	; 0x800221 <ERpos>
			rutina=0;							//Bajamos la bandera.
 740:	10 92 09 02 	sts	0x0209, r1	; 0x800209 <rutina>

//FUNCIONES ER//


inline void bajaER(){
	if(ERpos==1){								//Bajamos el ER sin bloquear el programa.
 744:	80 91 21 02 	lds	r24, 0x0221	; 0x800221 <ERpos>
 748:	81 30       	cpi	r24, 0x01	; 1
 74a:	19 f4       	brne	.+6      	; 0x752 <OnSW5Interruption+0x4a>
		clearBit(M5_enPORT,M5_en_X);			//M5_enable off.
 74c:	5f 98       	cbi	0x0b, 7	; 11
		clearBit(M5_diPORT,M5_di_X);			//Dirección descendente (0).
 74e:	5d 98       	cbi	0x0b, 5	; 11
		setBit(M5_enPORT,M5_en_X);				//M5_enable on.
 750:	5f 9a       	sbi	0x0b, 7	; 11
 752:	08 95       	ret

00000754 <UpdateTimerElevadores>:
			
	
	
}
inline void UpdateTimerElevadores(){				//Rehabilita la interrupción de SW5(antirrebotes).
	Time=Time+5;							//Salta cada 5ms.
 754:	80 91 07 02 	lds	r24, 0x0207	; 0x800207 <Time>
 758:	90 91 08 02 	lds	r25, 0x0208	; 0x800208 <Time+0x1>
 75c:	05 96       	adiw	r24, 0x05	; 5
 75e:	90 93 08 02 	sts	0x0208, r25	; 0x800208 <Time+0x1>
 762:	80 93 07 02 	sts	0x0207, r24	; 0x800207 <Time>
	if(Time>=20){							//Si ha pasado el tiempo de espera.
 766:	80 91 07 02 	lds	r24, 0x0207	; 0x800207 <Time>
 76a:	90 91 08 02 	lds	r25, 0x0208	; 0x800208 <Time+0x1>
 76e:	44 97       	sbiw	r24, 0x14	; 20
 770:	10 f0       	brcs	.+4      	; 0x776 <UpdateTimerElevadores+0x22>
		setBit(EIMSK,3);					//Habilita la interrupción
 772:	eb 9a       	sbi	0x1d, 3	; 29
		setBit(EIFR,3);						//Limpia la bandera.
 774:	e3 9a       	sbi	0x1c, 3	; 28
 776:	08 95       	ret

00000778 <setupLanzador>:
	ms_elapsed = time;
}
// getter para el valor del tiempo actual
inline uint32_t getTime(){
	return ms_elapsed;
}
 778:	f8 94       	cli
 77a:	e8 9a       	sbi	0x1d, 0	; 29
 77c:	e9 e6       	ldi	r30, 0x69	; 105
 77e:	f0 e0       	ldi	r31, 0x00	; 0
 780:	80 81       	ld	r24, Z
 782:	82 60       	ori	r24, 0x02	; 2
 784:	80 83       	st	Z, r24
 786:	ea 9a       	sbi	0x1d, 2	; 29
 788:	80 81       	ld	r24, Z
 78a:	80 62       	ori	r24, 0x20	; 32
 78c:	80 83       	st	Z, r24
 78e:	50 98       	cbi	0x0a, 0	; 10
 790:	51 98       	cbi	0x0a, 1	; 10
 792:	54 98       	cbi	0x0a, 4	; 10
 794:	53 98       	cbi	0x0a, 3	; 10
 796:	e7 e0       	ldi	r30, 0x07	; 7
 798:	f1 e0       	ldi	r31, 0x01	; 1
 79a:	80 81       	ld	r24, Z
 79c:	80 64       	ori	r24, 0x40	; 64
 79e:	80 83       	st	Z, r24
 7a0:	80 81       	ld	r24, Z
 7a2:	80 68       	ori	r24, 0x80	; 128
 7a4:	80 83       	st	Z, r24
 7a6:	ea e0       	ldi	r30, 0x0A	; 10
 7a8:	f1 e0       	ldi	r31, 0x01	; 1
 7aa:	80 81       	ld	r24, Z
 7ac:	84 60       	ori	r24, 0x04	; 4
 7ae:	80 83       	st	Z, r24
 7b0:	80 81       	ld	r24, Z
 7b2:	80 62       	ori	r24, 0x20	; 32
 7b4:	80 83       	st	Z, r24
 7b6:	55 9a       	sbi	0x0a, 5	; 10
 7b8:	80 81       	ld	r24, Z
 7ba:	81 60       	ori	r24, 0x01	; 1
 7bc:	80 83       	st	Z, r24
 7be:	80 81       	ld	r24, Z
 7c0:	82 60       	ori	r24, 0x02	; 2
 7c2:	80 83       	st	Z, r24
 7c4:	80 81       	ld	r24, Z
 7c6:	80 61       	ori	r24, 0x10	; 16
 7c8:	80 83       	st	Z, r24
 7ca:	80 81       	ld	r24, Z
 7cc:	80 68       	ori	r24, 0x80	; 128
 7ce:	80 83       	st	Z, r24
 7d0:	57 9a       	sbi	0x0a, 7	; 10
 7d2:	80 81       	ld	r24, Z
 7d4:	88 60       	ori	r24, 0x08	; 8
 7d6:	80 83       	st	Z, r24
 7d8:	78 94       	sei
 7da:	08 95       	ret

000007dc <lanzadorHome>:
 7dc:	80 e0       	ldi	r24, 0x00	; 0
 7de:	90 e0       	ldi	r25, 0x00	; 0
 7e0:	0e 94 c0 00 	call	0x180	; 0x180 <girarLanzador>
 7e4:	2f ef       	ldi	r18, 0xFF	; 255
 7e6:	89 e6       	ldi	r24, 0x69	; 105
 7e8:	98 e1       	ldi	r25, 0x18	; 24
 7ea:	21 50       	subi	r18, 0x01	; 1
 7ec:	80 40       	sbci	r24, 0x00	; 0
 7ee:	90 40       	sbci	r25, 0x00	; 0
 7f0:	e1 f7       	brne	.-8      	; 0x7ea <lanzadorHome+0xe>
 7f2:	00 c0       	rjmp	.+0      	; 0x7f4 <lanzadorHome+0x18>
 7f4:	00 00       	nop
 7f6:	0e 94 ed 00 	call	0x1da	; 0x1da <pararLanzador>
 7fa:	10 92 01 02 	sts	0x0201, r1	; 0x800201 <position>
 7fe:	08 95       	ret

00000800 <vastagoHome>:
 800:	0e 94 02 01 	call	0x204	; 0x204 <moverVastagoAtras>
 804:	2f ef       	ldi	r18, 0xFF	; 255
 806:	81 ee       	ldi	r24, 0xE1	; 225
 808:	94 e0       	ldi	r25, 0x04	; 4
 80a:	21 50       	subi	r18, 0x01	; 1
 80c:	80 40       	sbci	r24, 0x00	; 0
 80e:	90 40       	sbci	r25, 0x00	; 0
 810:	e1 f7       	brne	.-8      	; 0x80a <vastagoHome+0xa>
 812:	00 c0       	rjmp	.+0      	; 0x814 <vastagoHome+0x14>
 814:	00 00       	nop
 816:	49 99       	sbic	0x09, 1	; 9
 818:	fe cf       	rjmp	.-4      	; 0x816 <vastagoHome+0x16>
 81a:	0e 94 0e 01 	call	0x21c	; 0x21c <pararVastago>
 81e:	08 95       	ret

00000820 <carritoHome>:
 820:	0e 94 20 01 	call	0x240	; 0x240 <liberarCarrito>
 824:	2f ef       	ldi	r18, 0xFF	; 255
 826:	81 ee       	ldi	r24, 0xE1	; 225
 828:	94 e0       	ldi	r25, 0x04	; 4
 82a:	21 50       	subi	r18, 0x01	; 1
 82c:	80 40       	sbci	r24, 0x00	; 0
 82e:	90 40       	sbci	r25, 0x00	; 0
 830:	e1 f7       	brne	.-8      	; 0x82a <carritoHome+0xa>
 832:	00 c0       	rjmp	.+0      	; 0x834 <carritoHome+0x14>
 834:	00 00       	nop
 836:	4c 99       	sbic	0x09, 4	; 9
 838:	fe cf       	rjmp	.-4      	; 0x836 <carritoHome+0x16>
 83a:	0e 94 2c 01 	call	0x258	; 0x258 <pararCarrito>
 83e:	08 95       	ret

00000840 <updateTime>:
 840:	80 91 0f 02 	lds	r24, 0x020F	; 0x80020f <ms_elapsed>
 844:	90 91 10 02 	lds	r25, 0x0210	; 0x800210 <ms_elapsed+0x1>
 848:	a0 91 11 02 	lds	r26, 0x0211	; 0x800211 <ms_elapsed+0x2>
 84c:	b0 91 12 02 	lds	r27, 0x0212	; 0x800212 <ms_elapsed+0x3>
 850:	05 96       	adiw	r24, 0x05	; 5
 852:	a1 1d       	adc	r26, r1
 854:	b1 1d       	adc	r27, r1
 856:	80 93 0f 02 	sts	0x020F, r24	; 0x80020f <ms_elapsed>
 85a:	90 93 10 02 	sts	0x0210, r25	; 0x800210 <ms_elapsed+0x1>
 85e:	a0 93 11 02 	sts	0x0211, r26	; 0x800211 <ms_elapsed+0x2>
 862:	b0 93 12 02 	sts	0x0212, r27	; 0x800212 <ms_elapsed+0x3>
 866:	80 91 0f 02 	lds	r24, 0x020F	; 0x80020f <ms_elapsed>
 86a:	90 91 10 02 	lds	r25, 0x0210	; 0x800210 <ms_elapsed+0x1>
 86e:	a0 91 11 02 	lds	r26, 0x0211	; 0x800211 <ms_elapsed+0x2>
 872:	b0 91 12 02 	lds	r27, 0x0212	; 0x800212 <ms_elapsed+0x3>
 876:	40 91 0b 02 	lds	r20, 0x020B	; 0x80020b <last_interruption_time>
 87a:	50 91 0c 02 	lds	r21, 0x020C	; 0x80020c <last_interruption_time+0x1>
 87e:	60 91 0d 02 	lds	r22, 0x020D	; 0x80020d <last_interruption_time+0x2>
 882:	70 91 0e 02 	lds	r23, 0x020E	; 0x80020e <last_interruption_time+0x3>
 886:	84 1b       	sub	r24, r20
 888:	95 0b       	sbc	r25, r21
 88a:	a6 0b       	sbc	r26, r22
 88c:	b7 0b       	sbc	r27, r23
 88e:	84 3f       	cpi	r24, 0xF4	; 244
 890:	91 40       	sbci	r25, 0x01	; 1
 892:	a1 05       	cpc	r26, r1
 894:	b1 05       	cpc	r27, r1
 896:	10 f4       	brcc	.+4      	; 0x89c <updateTime+0x5c>
 898:	e8 98       	cbi	0x1d, 0	; 29
 89a:	08 95       	ret
 89c:	e8 9a       	sbi	0x1d, 0	; 29
 89e:	08 95       	ret

000008a0 <parpadearLED>:


// funcion que, si esta llamada, actualiza el estado de la led, para que esta parpadeando
// llamar la funcion mediante interrupciones temporales (resolucion <50ms)
inline void parpadearLED(){
	if(ms_elapsed % 200 <= 100){
 8a0:	60 91 0f 02 	lds	r22, 0x020F	; 0x80020f <ms_elapsed>
 8a4:	70 91 10 02 	lds	r23, 0x0210	; 0x800210 <ms_elapsed+0x1>
 8a8:	80 91 11 02 	lds	r24, 0x0211	; 0x800211 <ms_elapsed+0x2>
 8ac:	90 91 12 02 	lds	r25, 0x0212	; 0x800212 <ms_elapsed+0x3>
 8b0:	28 ec       	ldi	r18, 0xC8	; 200
 8b2:	30 e0       	ldi	r19, 0x00	; 0
 8b4:	40 e0       	ldi	r20, 0x00	; 0
 8b6:	50 e0       	ldi	r21, 0x00	; 0
 8b8:	0e 94 5a 07 	call	0xeb4	; 0xeb4 <__udivmodsi4>
 8bc:	65 36       	cpi	r22, 0x65	; 101
 8be:	71 05       	cpc	r23, r1
 8c0:	81 05       	cpc	r24, r1
 8c2:	91 05       	cpc	r25, r1
 8c4:	18 f4       	brcc	.+6      	; 0x8cc <parpadearLED+0x2c>
		apagarLED();
 8c6:	0e 94 58 01 	call	0x2b0	; 0x2b0 <apagarLED>
 8ca:	08 95       	ret
	}
	else{
		encenderLED();
 8cc:	0e 94 52 01 	call	0x2a4	; 0x2a4 <encenderLED>
 8d0:	08 95       	ret

000008d2 <OnSW2Interruption>:
// interrupcion para el boton de disparo
// incluye proteccion, se atiende solo cuando estamos en LANZAMIENTO


inline void OnSW2Interruption(){
	if(ms_elapsed-last_interruption_time>doublePressbuffer){  // doble chequeo, pero no es necesaio
 8d2:	80 91 0f 02 	lds	r24, 0x020F	; 0x80020f <ms_elapsed>
 8d6:	90 91 10 02 	lds	r25, 0x0210	; 0x800210 <ms_elapsed+0x1>
 8da:	a0 91 11 02 	lds	r26, 0x0211	; 0x800211 <ms_elapsed+0x2>
 8de:	b0 91 12 02 	lds	r27, 0x0212	; 0x800212 <ms_elapsed+0x3>
 8e2:	40 91 0b 02 	lds	r20, 0x020B	; 0x80020b <last_interruption_time>
 8e6:	50 91 0c 02 	lds	r21, 0x020C	; 0x80020c <last_interruption_time+0x1>
 8ea:	60 91 0d 02 	lds	r22, 0x020D	; 0x80020d <last_interruption_time+0x2>
 8ee:	70 91 0e 02 	lds	r23, 0x020E	; 0x80020e <last_interruption_time+0x3>
 8f2:	84 1b       	sub	r24, r20
 8f4:	95 0b       	sbc	r25, r21
 8f6:	a6 0b       	sbc	r26, r22
 8f8:	b7 0b       	sbc	r27, r23
 8fa:	85 3f       	cpi	r24, 0xF5	; 245
 8fc:	91 40       	sbci	r25, 0x01	; 1
 8fe:	a1 05       	cpc	r26, r1
 900:	b1 05       	cpc	r27, r1
 902:	78 f1       	brcs	.+94     	; 0x962 <OnSW2Interruption+0x90>
		if(lanzadorFlag==1){
 904:	80 91 00 02 	lds	r24, 0x0200	; 0x800200 <__DATA_REGION_ORIGIN__>
 908:	81 30       	cpi	r24, 0x01	; 1
 90a:	a9 f4       	brne	.+42     	; 0x936 <OnSW2Interruption+0x64>
			last_interruption_time = ms_elapsed;
 90c:	80 91 0f 02 	lds	r24, 0x020F	; 0x80020f <ms_elapsed>
 910:	90 91 10 02 	lds	r25, 0x0210	; 0x800210 <ms_elapsed+0x1>
 914:	a0 91 11 02 	lds	r26, 0x0211	; 0x800211 <ms_elapsed+0x2>
 918:	b0 91 12 02 	lds	r27, 0x0212	; 0x800212 <ms_elapsed+0x3>
 91c:	80 93 0b 02 	sts	0x020B, r24	; 0x80020b <last_interruption_time>
 920:	90 93 0c 02 	sts	0x020C, r25	; 0x80020c <last_interruption_time+0x1>
 924:	a0 93 0d 02 	sts	0x020D, r26	; 0x80020d <last_interruption_time+0x2>
 928:	b0 93 0e 02 	sts	0x020E, r27	; 0x80020e <last_interruption_time+0x3>
			girarLanzador(0);
 92c:	80 e0       	ldi	r24, 0x00	; 0
 92e:	90 e0       	ldi	r25, 0x00	; 0
 930:	0e 94 c0 00 	call	0x180	; 0x180 <girarLanzador>
 934:	08 95       	ret
		}
		else if(lanzadorFlag==0){
 936:	81 11       	cpse	r24, r1
 938:	14 c0       	rjmp	.+40     	; 0x962 <OnSW2Interruption+0x90>
			last_interruption_time = ms_elapsed;
 93a:	80 91 0f 02 	lds	r24, 0x020F	; 0x80020f <ms_elapsed>
 93e:	90 91 10 02 	lds	r25, 0x0210	; 0x800210 <ms_elapsed+0x1>
 942:	a0 91 11 02 	lds	r26, 0x0211	; 0x800211 <ms_elapsed+0x2>
 946:	b0 91 12 02 	lds	r27, 0x0212	; 0x800212 <ms_elapsed+0x3>
 94a:	80 93 0b 02 	sts	0x020B, r24	; 0x80020b <last_interruption_time>
 94e:	90 93 0c 02 	sts	0x020C, r25	; 0x80020c <last_interruption_time+0x1>
 952:	a0 93 0d 02 	sts	0x020D, r26	; 0x80020d <last_interruption_time+0x2>
 956:	b0 93 0e 02 	sts	0x020E, r27	; 0x80020e <last_interruption_time+0x3>
			girarLanzador(1);
 95a:	81 e0       	ldi	r24, 0x01	; 1
 95c:	90 e0       	ldi	r25, 0x00	; 0
 95e:	0e 94 c0 00 	call	0x180	; 0x180 <girarLanzador>
 962:	08 95       	ret

00000964 <__vector_21>:
volatile int Pinchange = 0;

/************************************************************************/
// Interrupciones:

ISR(TIMER0_COMPA_vect){						//Interrupcion que ocurre cada 5ms
 964:	1f 92       	push	r1
 966:	0f 92       	push	r0
 968:	0f b6       	in	r0, 0x3f	; 63
 96a:	0f 92       	push	r0
 96c:	11 24       	eor	r1, r1
 96e:	2f 93       	push	r18
 970:	3f 93       	push	r19
 972:	4f 93       	push	r20
 974:	5f 93       	push	r21
 976:	6f 93       	push	r22
 978:	7f 93       	push	r23
 97a:	8f 93       	push	r24
 97c:	9f 93       	push	r25
 97e:	af 93       	push	r26
 980:	bf 93       	push	r27
 982:	ef 93       	push	r30
 984:	ff 93       	push	r31
	DisplayUpdater();  // update displays with high frecuency
 986:	0e 94 9f 01 	call	0x33e	; 0x33e <DisplayUpdater>
	UpdateTimerElevadores();  // 
 98a:	0e 94 aa 03 	call	0x754	; 0x754 <UpdateTimerElevadores>
	updateTime();		// update Lanzadores Timer
 98e:	0e 94 20 04 	call	0x840	; 0x840 <updateTime>
	if(parpadearFlag==1){
 992:	80 91 1c 02 	lds	r24, 0x021C	; 0x80021c <parpadearFlag>
 996:	81 30       	cpi	r24, 0x01	; 1
 998:	11 f4       	brne	.+4      	; 0x99e <__vector_21+0x3a>
		parpadearLED();   // enable parpadeo if necessary
 99a:	0e 94 50 04 	call	0x8a0	; 0x8a0 <parpadearLED>
	}
	state1 = getSensor1();
 99e:	0e 94 32 01 	call	0x264	; 0x264 <getSensor1>
 9a2:	90 93 27 02 	sts	0x0227, r25	; 0x800227 <state1+0x1>
 9a6:	80 93 26 02 	sts	0x0226, r24	; 0x800226 <state1>
	state2 = getSensor2();
 9aa:	0e 94 38 01 	call	0x270	; 0x270 <getSensor2>
 9ae:	90 93 2b 02 	sts	0x022B, r25	; 0x80022b <state2+0x1>
 9b2:	80 93 2a 02 	sts	0x022A, r24	; 0x80022a <state2>
	state3 = getSensor3();
 9b6:	0e 94 3c 01 	call	0x278	; 0x278 <getSensor3>
 9ba:	90 93 29 02 	sts	0x0229, r25	; 0x800229 <state3+0x1>
 9be:	80 93 28 02 	sts	0x0228, r24	; 0x800228 <state3>
	state4 = getSensor4();
 9c2:	0e 94 41 01 	call	0x282	; 0x282 <getSensor4>
 9c6:	90 93 23 02 	sts	0x0223, r25	; 0x800223 <state4+0x1>
 9ca:	80 93 22 02 	sts	0x0222, r24	; 0x800222 <state4>
	state5 = getSensor5();
 9ce:	0e 94 46 01 	call	0x28c	; 0x28c <getSensor5>
 9d2:	90 93 25 02 	sts	0x0225, r25	; 0x800225 <state5+0x1>
 9d6:	80 93 24 02 	sts	0x0224, r24	; 0x800224 <state5>
	state6 = getSensor6();
 9da:	0e 94 4c 01 	call	0x298	; 0x298 <getSensor6>
 9de:	90 93 2d 02 	sts	0x022D, r25	; 0x80022d <state6+0x1>
 9e2:	80 93 2c 02 	sts	0x022C, r24	; 0x80022c <state6>
}
 9e6:	ff 91       	pop	r31
 9e8:	ef 91       	pop	r30
 9ea:	bf 91       	pop	r27
 9ec:	af 91       	pop	r26
 9ee:	9f 91       	pop	r25
 9f0:	8f 91       	pop	r24
 9f2:	7f 91       	pop	r23
 9f4:	6f 91       	pop	r22
 9f6:	5f 91       	pop	r21
 9f8:	4f 91       	pop	r20
 9fa:	3f 91       	pop	r19
 9fc:	2f 91       	pop	r18
 9fe:	0f 90       	pop	r0
 a00:	0f be       	out	0x3f, r0	; 63
 a02:	0f 90       	pop	r0
 a04:	1f 90       	pop	r1
 a06:	18 95       	reti

00000a08 <__vector_17>:

ISR(TIMER1_COMPA_vect){  // cuando pasan los 30 segundos (10*3 segundos del timer 1)
 a08:	1f 92       	push	r1
 a0a:	0f 92       	push	r0
 a0c:	0f b6       	in	r0, 0x3f	; 63
 a0e:	0f 92       	push	r0
 a10:	11 24       	eor	r1, r1
 a12:	2f 93       	push	r18
 a14:	3f 93       	push	r19
 a16:	4f 93       	push	r20
 a18:	5f 93       	push	r21
 a1a:	6f 93       	push	r22
 a1c:	7f 93       	push	r23
 a1e:	8f 93       	push	r24
 a20:	9f 93       	push	r25
 a22:	af 93       	push	r26
 a24:	bf 93       	push	r27
 a26:	ef 93       	push	r30
 a28:	ff 93       	push	r31
	timerTicks++;
 a2a:	80 91 1a 02 	lds	r24, 0x021A	; 0x80021a <timerTicks>
 a2e:	8f 5f       	subi	r24, 0xFF	; 255
 a30:	80 93 1a 02 	sts	0x021A, r24	; 0x80021a <timerTicks>
	if(timerTicks==10){
 a34:	80 91 1a 02 	lds	r24, 0x021A	; 0x80021a <timerTicks>
 a38:	8a 30       	cpi	r24, 0x0A	; 10
 a3a:	49 f4       	brne	.+18     	; 0xa4e <__vector_17+0x46>
		parpadearFlag = 1;
 a3c:	81 e0       	ldi	r24, 0x01	; 1
 a3e:	80 93 1c 02 	sts	0x021C, r24	; 0x80021c <parpadearFlag>
		ultimoFlag = 1;
 a42:	80 93 1b 02 	sts	0x021B, r24	; 0x80021b <ultimoFlag>
		disableTimer1Int();
 a46:	0e 94 87 01 	call	0x30e	; 0x30e <disableTimer1Int>
		timerTicks = 0;
 a4a:	10 92 1a 02 	sts	0x021A, r1	; 0x80021a <timerTicks>
	}
}
 a4e:	ff 91       	pop	r31
 a50:	ef 91       	pop	r30
 a52:	bf 91       	pop	r27
 a54:	af 91       	pop	r26
 a56:	9f 91       	pop	r25
 a58:	8f 91       	pop	r24
 a5a:	7f 91       	pop	r23
 a5c:	6f 91       	pop	r22
 a5e:	5f 91       	pop	r21
 a60:	4f 91       	pop	r20
 a62:	3f 91       	pop	r19
 a64:	2f 91       	pop	r18
 a66:	0f 90       	pop	r0
 a68:	0f be       	out	0x3f, r0	; 63
 a6a:	0f 90       	pop	r0
 a6c:	1f 90       	pop	r1
 a6e:	18 95       	reti

00000a70 <__vector_11>:

ISR(PCINT2_vect){ //Cuidado que era por flanco de bajada
 a70:	1f 92       	push	r1
 a72:	0f 92       	push	r0
 a74:	0f b6       	in	r0, 0x3f	; 63
 a76:	0f 92       	push	r0
 a78:	11 24       	eor	r1, r1
 a7a:	2f 93       	push	r18
 a7c:	3f 93       	push	r19
 a7e:	4f 93       	push	r20
 a80:	5f 93       	push	r21
 a82:	6f 93       	push	r22
 a84:	7f 93       	push	r23
 a86:	8f 93       	push	r24
 a88:	9f 93       	push	r25
 a8a:	af 93       	push	r26
 a8c:	bf 93       	push	r27
 a8e:	ef 93       	push	r30
 a90:	ff 93       	push	r31
	OnPinChangeBolos();
 a92:	0e 94 27 07 	call	0xe4e	; 0xe4e <OnPinChangeBolos>
	Pinchange++;
 a96:	80 91 13 02 	lds	r24, 0x0213	; 0x800213 <Pinchange>
 a9a:	90 91 14 02 	lds	r25, 0x0214	; 0x800214 <Pinchange+0x1>
 a9e:	01 96       	adiw	r24, 0x01	; 1
 aa0:	90 93 14 02 	sts	0x0214, r25	; 0x800214 <Pinchange+0x1>
 aa4:	80 93 13 02 	sts	0x0213, r24	; 0x800213 <Pinchange>
}
 aa8:	ff 91       	pop	r31
 aaa:	ef 91       	pop	r30
 aac:	bf 91       	pop	r27
 aae:	af 91       	pop	r26
 ab0:	9f 91       	pop	r25
 ab2:	8f 91       	pop	r24
 ab4:	7f 91       	pop	r23
 ab6:	6f 91       	pop	r22
 ab8:	5f 91       	pop	r21
 aba:	4f 91       	pop	r20
 abc:	3f 91       	pop	r19
 abe:	2f 91       	pop	r18
 ac0:	0f 90       	pop	r0
 ac2:	0f be       	out	0x3f, r0	; 63
 ac4:	0f 90       	pop	r0
 ac6:	1f 90       	pop	r1
 ac8:	18 95       	reti

00000aca <__vector_1>:

// interrupcon del SW2 que sirva para distinguir que pulsador se ha pulsado
// solo me interesan durante el estado de LANZAMIENTO
ISR(INT0_vect){
 aca:	1f 92       	push	r1
 acc:	0f 92       	push	r0
 ace:	0f b6       	in	r0, 0x3f	; 63
 ad0:	0f 92       	push	r0
 ad2:	11 24       	eor	r1, r1
 ad4:	2f 93       	push	r18
 ad6:	3f 93       	push	r19
 ad8:	4f 93       	push	r20
 ada:	5f 93       	push	r21
 adc:	6f 93       	push	r22
 ade:	7f 93       	push	r23
 ae0:	8f 93       	push	r24
 ae2:	9f 93       	push	r25
 ae4:	af 93       	push	r26
 ae6:	bf 93       	push	r27
 ae8:	ef 93       	push	r30
 aea:	ff 93       	push	r31
	interrupt0++;
 aec:	80 91 17 02 	lds	r24, 0x0217	; 0x800217 <interrupt0>
 af0:	90 91 18 02 	lds	r25, 0x0218	; 0x800218 <interrupt0+0x1>
 af4:	01 96       	adiw	r24, 0x01	; 1
 af6:	90 93 18 02 	sts	0x0218, r25	; 0x800218 <interrupt0+0x1>
 afa:	80 93 17 02 	sts	0x0217, r24	; 0x800217 <interrupt0>
	if(state==LANZAMIENTO){
 afe:	80 91 0a 02 	lds	r24, 0x020A	; 0x80020a <state>
 b02:	83 30       	cpi	r24, 0x03	; 3
 b04:	11 f4       	brne	.+4      	; 0xb0a <__vector_1+0x40>
		OnSW2Interruption();
 b06:	0e 94 69 04 	call	0x8d2	; 0x8d2 <OnSW2Interruption>
	}
}
 b0a:	ff 91       	pop	r31
 b0c:	ef 91       	pop	r30
 b0e:	bf 91       	pop	r27
 b10:	af 91       	pop	r26
 b12:	9f 91       	pop	r25
 b14:	8f 91       	pop	r24
 b16:	7f 91       	pop	r23
 b18:	6f 91       	pop	r22
 b1a:	5f 91       	pop	r21
 b1c:	4f 91       	pop	r20
 b1e:	3f 91       	pop	r19
 b20:	2f 91       	pop	r18
 b22:	0f 90       	pop	r0
 b24:	0f be       	out	0x3f, r0	; 63
 b26:	0f 90       	pop	r0
 b28:	1f 90       	pop	r1
 b2a:	18 95       	reti

00000b2c <__vector_3>:

ISR(INT2_vect){  // interrupcion del pulsador del disparo (SW6), maneja los cambios de estado cuando se pulsa
 b2c:	1f 92       	push	r1
 b2e:	0f 92       	push	r0
 b30:	0f b6       	in	r0, 0x3f	; 63
 b32:	0f 92       	push	r0
 b34:	11 24       	eor	r1, r1
 b36:	2f 93       	push	r18
 b38:	3f 93       	push	r19
 b3a:	4f 93       	push	r20
 b3c:	5f 93       	push	r21
 b3e:	6f 93       	push	r22
 b40:	7f 93       	push	r23
 b42:	8f 93       	push	r24
 b44:	9f 93       	push	r25
 b46:	af 93       	push	r26
 b48:	bf 93       	push	r27
 b4a:	ef 93       	push	r30
 b4c:	ff 93       	push	r31
	interrupt2 ++;
 b4e:	80 91 15 02 	lds	r24, 0x0215	; 0x800215 <interrupt2>
 b52:	90 91 16 02 	lds	r25, 0x0216	; 0x800216 <interrupt2+0x1>
 b56:	01 96       	adiw	r24, 0x01	; 1
 b58:	90 93 16 02 	sts	0x0216, r25	; 0x800216 <interrupt2+0x1>
 b5c:	80 93 15 02 	sts	0x0215, r24	; 0x800215 <interrupt2>
	if(state == LANZAMIENTO){
 b60:	80 91 0a 02 	lds	r24, 0x020A	; 0x80020a <state>
 b64:	83 30       	cpi	r24, 0x03	; 3
 b66:	29 f4       	brne	.+10     	; 0xb72 <__vector_3+0x46>
		habilitarInterrupcionesSensores();
 b68:	0e 94 20 07 	call	0xe40	; 0xe40 <habilitarInterrupcionesSensores>
		state = TIRAR_BOLA;
 b6c:	84 e0       	ldi	r24, 0x04	; 4
 b6e:	80 93 0a 02 	sts	0x020A, r24	; 0x80020a <state>
	}
	if(state == HOME){
 b72:	80 91 0a 02 	lds	r24, 0x020A	; 0x80020a <state>
 b76:	81 11       	cpse	r24, r1
 b78:	03 c0       	rjmp	.+6      	; 0xb80 <__vector_3+0x54>
		state = SIN_BOLA;
 b7a:	81 e0       	ldi	r24, 0x01	; 1
 b7c:	80 93 0a 02 	sts	0x020A, r24	; 0x80020a <state>
	}
	if(state==FINAL){
 b80:	80 91 0a 02 	lds	r24, 0x020A	; 0x80020a <state>
 b84:	86 30       	cpi	r24, 0x06	; 6
 b86:	11 f4       	brne	.+4      	; 0xb8c <__vector_3+0x60>
		state = HOME;
 b88:	10 92 0a 02 	sts	0x020A, r1	; 0x80020a <state>
	}
}
 b8c:	ff 91       	pop	r31
 b8e:	ef 91       	pop	r30
 b90:	bf 91       	pop	r27
 b92:	af 91       	pop	r26
 b94:	9f 91       	pop	r25
 b96:	8f 91       	pop	r24
 b98:	7f 91       	pop	r23
 b9a:	6f 91       	pop	r22
 b9c:	5f 91       	pop	r21
 b9e:	4f 91       	pop	r20
 ba0:	3f 91       	pop	r19
 ba2:	2f 91       	pop	r18
 ba4:	0f 90       	pop	r0
 ba6:	0f be       	out	0x3f, r0	; 63
 ba8:	0f 90       	pop	r0
 baa:	1f 90       	pop	r1
 bac:	18 95       	reti

00000bae <__vector_4>:

ISR(INT3_vect) {  // interrupcion del sensor SW5 
 bae:	1f 92       	push	r1
 bb0:	0f 92       	push	r0
 bb2:	0f b6       	in	r0, 0x3f	; 63
 bb4:	0f 92       	push	r0
 bb6:	11 24       	eor	r1, r1
 bb8:	2f 93       	push	r18
 bba:	3f 93       	push	r19
 bbc:	4f 93       	push	r20
 bbe:	5f 93       	push	r21
 bc0:	6f 93       	push	r22
 bc2:	7f 93       	push	r23
 bc4:	8f 93       	push	r24
 bc6:	9f 93       	push	r25
 bc8:	af 93       	push	r26
 bca:	bf 93       	push	r27
 bcc:	ef 93       	push	r30
 bce:	ff 93       	push	r31
	OnSW5Interruption();
 bd0:	0e 94 84 03 	call	0x708	; 0x708 <OnSW5Interruption>
}
 bd4:	ff 91       	pop	r31
 bd6:	ef 91       	pop	r30
 bd8:	bf 91       	pop	r27
 bda:	af 91       	pop	r26
 bdc:	9f 91       	pop	r25
 bde:	8f 91       	pop	r24
 be0:	7f 91       	pop	r23
 be2:	6f 91       	pop	r22
 be4:	5f 91       	pop	r21
 be6:	4f 91       	pop	r20
 be8:	3f 91       	pop	r19
 bea:	2f 91       	pop	r18
 bec:	0f 90       	pop	r0
 bee:	0f be       	out	0x3f, r0	; 63
 bf0:	0f 90       	pop	r0
 bf2:	1f 90       	pop	r1
 bf4:	18 95       	reti

00000bf6 <main>:
	#else
		//round up by default
		__ticks_dc = (uint32_t)(ceil(fabs(__tmp)));
	#endif

	__builtin_avr_delay_cycles(__ticks_dc);
 bf6:	2f ef       	ldi	r18, 0xFF	; 255
 bf8:	81 ee       	ldi	r24, 0xE1	; 225
 bfa:	94 e0       	ldi	r25, 0x04	; 4
 bfc:	21 50       	subi	r18, 0x01	; 1
 bfe:	80 40       	sbci	r24, 0x00	; 0
 c00:	90 40       	sbci	r25, 0x00	; 0
 c02:	e1 f7       	brne	.-8      	; 0xbfc <main+0x6>
 c04:	00 c0       	rjmp	.+0      	; 0xc06 <main+0x10>
 c06:	00 00       	nop

int main(void)
{
	// proceso de setup de todos los componentes:
	_delay_ms(200);
	setup_puertos();
 c08:	0e 94 5e 01 	call	0x2bc	; 0x2bc <setup_puertos>
	setupLanzador();
 c0c:	0e 94 bc 03 	call	0x778	; 0x778 <setupLanzador>
	setup_timer0();
 c10:	0e 94 77 01 	call	0x2ee	; 0x2ee <setup_timer0>
	setup_timer1();
 c14:	0e 94 8e 01 	call	0x31c	; 0x31c <setup_timer1>
	setupElevadores();
 c18:	0e 94 fe 02 	call	0x5fc	; 0x5fc <setupElevadores>
	homeER();
 c1c:	0e 94 22 03 	call	0x644	; 0x644 <homeER>
	bajaER();  // comprobar si es necesario
 c20:	0e 94 71 03 	call	0x6e2	; 0x6e2 <bajaER>
	homeEC();
 c24:	0e 94 05 03 	call	0x60a	; 0x60a <homeEC>
	// subeEC();  // comprobar si es necesario
	vastagoHome();
 c28:	0e 94 00 04 	call	0x800	; 0x800 <vastagoHome>
	carritoHome();
 c2c:	0e 94 10 04 	call	0x820	; 0x820 <carritoHome>
	lanzadorHome();  // comprobar si se puede hacer el home de manera segura (ELEVADOR)
 c30:	0e 94 ee 03 	call	0x7dc	; 0x7dc <lanzadorHome>
					girarLanzador(0);  // girar hacia la izquierda
					_delay_ms(1000);
					oscillando = 1;
				}
				
				state = LANZAMIENTO; // empezar lanzamiento
 c34:	03 e0       	ldi	r16, 0x03	; 3
				//buffer = getTime();  // timer de 30 segundos
				
				if(oscillando==0){
					girarLanzador(0);  // girar hacia la izquierda
					_delay_ms(1000);
					oscillando = 1;
 c36:	c1 e0       	ldi	r28, 0x01	; 1
				_delay_ms(4000);   // esperar hasta la bola llega
				recarga();
				_delay_ms(long_delay);
				deshabilitarInterrupcionesSensores();  // evitar otras interrupciones de los bolos
				if(habilitarEstadoFinal==1){ // si hemos tirado la bola y ya estamos en el ultimo disparo
					state = FINAL;  // volver a primer estado de espera
 c38:	0f 2e       	mov	r0, r31
 c3a:	f6 e0       	ldi	r31, 0x06	; 6
 c3c:	ff 2e       	mov	r15, r31
 c3e:	f0 2d       	mov	r31, r0
				liberarCarrito();  // tiramos la bola
				_delay_ms(button_check_delay_ms);
				loop_until_bit_is_clear(SW4PIN,SW4X);
				pararCarrito();

				state = RETORNO;  // inicar estado de retorno
 c40:	15 e0       	ldi	r17, 0x05	; 5
				_delay_ms(long_delay);
				bajaEC();  // coger la bola
				_delay_ms(500);
				subeEC(); // subir la bola		
				// Aqui: verficiar que bola esta cargada:
				state = BOLA_LANZADOR;
 c42:	d2 e0       	ldi	r29, 0x02	; 2
	// subeEC();  // comprobar si es necesario
	vastagoHome();
	carritoHome();
	lanzadorHome();  // comprobar si se puede hacer el home de manera segura (ELEVADOR)
    while (1) {
		switch(state){
 c44:	e0 91 0a 02 	lds	r30, 0x020A	; 0x80020a <state>
 c48:	8e 2f       	mov	r24, r30
 c4a:	90 e0       	ldi	r25, 0x00	; 0
 c4c:	87 30       	cpi	r24, 0x07	; 7
 c4e:	91 05       	cpc	r25, r1
 c50:	08 f0       	brcs	.+2      	; 0xc54 <main+0x5e>
 c52:	f3 c0       	rjmp	.+486    	; 0xe3a <main+0x244>
 c54:	fc 01       	movw	r30, r24
 c56:	e6 56       	subi	r30, 0x66	; 102
 c58:	ff 4f       	sbci	r31, 0xFF	; 255
 c5a:	0c 94 7c 07 	jmp	0xef8	; 0xef8 <__tablejump2__>
			case HOME:  // despues de init
				ultimoFlag = 0;
 c5e:	10 92 1b 02 	sts	0x021B, r1	; 0x80021b <ultimoFlag>
				parpadearFlag = 0;
 c62:	10 92 1c 02 	sts	0x021C, r1	; 0x80021c <parpadearFlag>
				finalizadoFlag = 0;
 c66:	10 92 04 02 	sts	0x0204, r1	; 0x800204 <__data_end>
				puntuacion = 0;
 c6a:	10 92 1d 02 	sts	0x021D, r1	; 0x80021d <puntuacion>
				// habilitar estado final se resetea despues
				// no hacemos nada, esperamos la interrupcion de disparo
				//loop_until_bit_is_set(SW6PIN,SW6X);
				//state = SIN_BOLA;
				break;
 c6e:	ea cf       	rjmp	.-44     	; 0xc44 <main+0x4e>
			case SIN_BOLA:
				subeEC();  // comprobar que EC esta en posicion alta
 c70:	0e 94 51 03 	call	0x6a2	; 0x6a2 <subeEC>
				// _delay_ms(long_delay);  sube bloquante
				girarLanzador(1);
 c74:	81 e0       	ldi	r24, 0x01	; 1
 c76:	90 e0       	ldi	r25, 0x00	; 0
 c78:	0e 94 c0 00 	call	0x180	; 0x180 <girarLanzador>
				moverVastagoAtras();  // mover vastago atras para evitar que choca (ya esta)
 c7c:	0e 94 02 01 	call	0x204	; 0x204 <moverVastagoAtras>
 c80:	2f ef       	ldi	r18, 0xFF	; 255
 c82:	89 e6       	ldi	r24, 0x69	; 105
 c84:	98 e1       	ldi	r25, 0x18	; 24
 c86:	21 50       	subi	r18, 0x01	; 1
 c88:	80 40       	sbci	r24, 0x00	; 0
 c8a:	90 40       	sbci	r25, 0x00	; 0
 c8c:	e1 f7       	brne	.-8      	; 0xc86 <main+0x90>
 c8e:	00 c0       	rjmp	.+0      	; 0xc90 <main+0x9a>
 c90:	00 00       	nop
				_delay_ms(long_delay);
				bajaEC();  // coger la bola
 c92:	0e 94 32 03 	call	0x664	; 0x664 <bajaEC>
 c96:	2f ef       	ldi	r18, 0xFF	; 255
 c98:	84 e3       	ldi	r24, 0x34	; 52
 c9a:	9c e0       	ldi	r25, 0x0C	; 12
 c9c:	21 50       	subi	r18, 0x01	; 1
 c9e:	80 40       	sbci	r24, 0x00	; 0
 ca0:	90 40       	sbci	r25, 0x00	; 0
 ca2:	e1 f7       	brne	.-8      	; 0xc9c <main+0xa6>
 ca4:	00 c0       	rjmp	.+0      	; 0xca6 <main+0xb0>
 ca6:	00 00       	nop
				_delay_ms(500);
				subeEC(); // subir la bola		
 ca8:	0e 94 51 03 	call	0x6a2	; 0x6a2 <subeEC>
				// Aqui: verficiar que bola esta cargada:
				state = BOLA_LANZADOR;
 cac:	d0 93 0a 02 	sts	0x020A, r29	; 0x80020a <state>
				break;
 cb0:	c9 cf       	rjmp	.-110    	; 0xc44 <main+0x4e>
			case BOLA_LANZADOR:
				// proceso para enganchar la bola en el lanzador

				// liberamos el carrito
				do {
					liberarCarrito();
 cb2:	0e 94 20 01 	call	0x240	; 0x240 <liberarCarrito>
 cb6:	2f ef       	ldi	r18, 0xFF	; 255
 cb8:	81 ee       	ldi	r24, 0xE1	; 225
 cba:	94 e0       	ldi	r25, 0x04	; 4
 cbc:	21 50       	subi	r18, 0x01	; 1
 cbe:	80 40       	sbci	r24, 0x00	; 0
 cc0:	90 40       	sbci	r25, 0x00	; 0
 cc2:	e1 f7       	brne	.-8      	; 0xcbc <main+0xc6>
 cc4:	00 c0       	rjmp	.+0      	; 0xcc6 <main+0xd0>
 cc6:	00 00       	nop
				_delay_ms(button_check_delay_ms);}
				while(getSensor4()!=0);
 cc8:	0e 94 41 01 	call	0x282	; 0x282 <getSensor4>
 ccc:	89 2b       	or	r24, r25
 cce:	89 f7       	brne	.-30     	; 0xcb2 <main+0xbc>
				pararCarrito();
 cd0:	0e 94 2c 01 	call	0x258	; 0x258 <pararCarrito>
					
				// movemos el vastago adelante
				do {
					moverVastagoAdelante();
 cd4:	0e 94 f6 00 	call	0x1ec	; 0x1ec <moverVastagoAdelante>
 cd8:	2f ef       	ldi	r18, 0xFF	; 255
 cda:	81 ee       	ldi	r24, 0xE1	; 225
 cdc:	94 e0       	ldi	r25, 0x04	; 4
 cde:	21 50       	subi	r18, 0x01	; 1
 ce0:	80 40       	sbci	r24, 0x00	; 0
 ce2:	90 40       	sbci	r25, 0x00	; 0
 ce4:	e1 f7       	brne	.-8      	; 0xcde <main+0xe8>
 ce6:	00 c0       	rjmp	.+0      	; 0xce8 <main+0xf2>
 ce8:	00 00       	nop
				_delay_ms(button_check_delay_ms);}
				while(getSensor3()!=0);
 cea:	0e 94 3c 01 	call	0x278	; 0x278 <getSensor3>
 cee:	89 2b       	or	r24, r25
 cf0:	89 f7       	brne	.-30     	; 0xcd4 <main+0xde>
				pararVastago();
 cf2:	0e 94 0e 01 	call	0x21c	; 0x21c <pararVastago>
					
				// enganchamos el carrito
				do {
					engancharCarrito();
 cf6:	0e 94 14 01 	call	0x228	; 0x228 <engancharCarrito>
 cfa:	2f ef       	ldi	r18, 0xFF	; 255
 cfc:	81 ee       	ldi	r24, 0xE1	; 225
 cfe:	94 e0       	ldi	r25, 0x04	; 4
 d00:	21 50       	subi	r18, 0x01	; 1
 d02:	80 40       	sbci	r24, 0x00	; 0
 d04:	90 40       	sbci	r25, 0x00	; 0
 d06:	e1 f7       	brne	.-8      	; 0xd00 <main+0x10a>
 d08:	00 c0       	rjmp	.+0      	; 0xd0a <main+0x114>
 d0a:	00 00       	nop
				_delay_ms(button_check_delay_ms);}
				while(getSensor4()!=0);
 d0c:	0e 94 41 01 	call	0x282	; 0x282 <getSensor4>
 d10:	89 2b       	or	r24, r25
 d12:	89 f7       	brne	.-30     	; 0xcf6 <main+0x100>
				pararCarrito();
 d14:	0e 94 2c 01 	call	0x258	; 0x258 <pararCarrito>
					
				//movemos el vastago atras (enganchar gomas)
				do {
					moverVastagoAtras();
 d18:	0e 94 02 01 	call	0x204	; 0x204 <moverVastagoAtras>
 d1c:	2f ef       	ldi	r18, 0xFF	; 255
 d1e:	81 ee       	ldi	r24, 0xE1	; 225
 d20:	94 e0       	ldi	r25, 0x04	; 4
 d22:	21 50       	subi	r18, 0x01	; 1
 d24:	80 40       	sbci	r24, 0x00	; 0
 d26:	90 40       	sbci	r25, 0x00	; 0
 d28:	e1 f7       	brne	.-8      	; 0xd22 <main+0x12c>
 d2a:	00 c0       	rjmp	.+0      	; 0xd2c <main+0x136>
 d2c:	00 00       	nop
				_delay_ms(button_check_delay_ms);}
				while(getSensor3()!=0);
 d2e:	0e 94 3c 01 	call	0x278	; 0x278 <getSensor3>
 d32:	89 2b       	or	r24, r25
 d34:	89 f7       	brne	.-30     	; 0xd18 <main+0x122>
				pararVastago();
 d36:	0e 94 0e 01 	call	0x21c	; 0x21c <pararVastago>
 d3a:	2f ef       	ldi	r18, 0xFF	; 255
 d3c:	81 ee       	ldi	r24, 0xE1	; 225
 d3e:	94 e0       	ldi	r25, 0x04	; 4
 d40:	21 50       	subi	r18, 0x01	; 1
 d42:	80 40       	sbci	r24, 0x00	; 0
 d44:	90 40       	sbci	r25, 0x00	; 0
 d46:	e1 f7       	brne	.-8      	; 0xd40 <main+0x14a>
 d48:	00 c0       	rjmp	.+0      	; 0xd4a <main+0x154>
 d4a:	00 00       	nop
					
				_delay_ms(button_check_delay_ms);
				
				//buffer = getTime();  // timer de 30 segundos
				
				if(oscillando==0){
 d4c:	80 91 19 02 	lds	r24, 0x0219	; 0x800219 <oscillando>
 d50:	81 11       	cpse	r24, r1
 d52:	0f c0       	rjmp	.+30     	; 0xd72 <main+0x17c>
					girarLanzador(0);  // girar hacia la izquierda
 d54:	80 e0       	ldi	r24, 0x00	; 0
 d56:	90 e0       	ldi	r25, 0x00	; 0
 d58:	0e 94 c0 00 	call	0x180	; 0x180 <girarLanzador>
 d5c:	2f ef       	ldi	r18, 0xFF	; 255
 d5e:	89 e6       	ldi	r24, 0x69	; 105
 d60:	98 e1       	ldi	r25, 0x18	; 24
 d62:	21 50       	subi	r18, 0x01	; 1
 d64:	80 40       	sbci	r24, 0x00	; 0
 d66:	90 40       	sbci	r25, 0x00	; 0
 d68:	e1 f7       	brne	.-8      	; 0xd62 <main+0x16c>
 d6a:	00 c0       	rjmp	.+0      	; 0xd6c <main+0x176>
 d6c:	00 00       	nop
					_delay_ms(1000);
					oscillando = 1;
 d6e:	c0 93 19 02 	sts	0x0219, r28	; 0x800219 <oscillando>
				}
				
				state = LANZAMIENTO; // empezar lanzamiento
 d72:	00 93 0a 02 	sts	0x020A, r16	; 0x80020a <state>
				
				break;
 d76:	66 cf       	rjmp	.-308    	; 0xc44 <main+0x4e>

			case LANZAMIENTO:
				
				encenderLED();
 d78:	0e 94 52 01 	call	0x2a4	; 0x2a4 <encenderLED>
				
				// esperar interupciones
				// loop_until_bit_is_set(SW6PIN,SW6X);  //esperar hasta se pulsa el disparo
				// cuando se interumpe, marcar state=TIRAR_BOLA
				// state = TIRAR_BOLA;
				break;
 d7c:	63 cf       	rjmp	.-314    	; 0xc44 <main+0x4e>
					
			case TIRAR_BOLA:
			
				if(habilitarEstadoFinal==1 && ultimoFlag==0){  // empezar timer de 30 segundos
 d7e:	80 91 02 02 	lds	r24, 0x0202	; 0x800202 <habilitarEstadoFinal>
 d82:	81 30       	cpi	r24, 0x01	; 1
 d84:	71 f4       	brne	.+28     	; 0xda2 <main+0x1ac>
 d86:	80 91 1b 02 	lds	r24, 0x021B	; 0x80021b <ultimoFlag>
 d8a:	81 11       	cpse	r24, r1
 d8c:	0a c0       	rjmp	.+20     	; 0xda2 <main+0x1ac>
					resetTimer1();
 d8e:	0e 94 82 01 	call	0x304	; 0x304 <resetTimer1>
					enableTimer1Int();
 d92:	0e 94 8a 01 	call	0x314	; 0x314 <enableTimer1Int>
					puntuacion = 0;
 d96:	10 92 1d 02 	sts	0x021D, r1	; 0x80021d <puntuacion>
					timerTicks = 0;
 d9a:	10 92 1a 02 	sts	0x021A, r1	; 0x80021a <timerTicks>
					habilitarEstadoFinal = 0;  // resetear flag de estado final
 d9e:	10 92 02 02 	sts	0x0202, r1	; 0x800202 <habilitarEstadoFinal>
				}
				
				oscillando=0;  // deshabilitar bandera de oscillacion
 da2:	10 92 19 02 	sts	0x0219, r1	; 0x800219 <oscillando>
				
				// El interruptor de disparo se ha pulsado
				parpadearFlag = 0;  // apagar led despues del disparo (y parpadeo)
 da6:	10 92 1c 02 	sts	0x021C, r1	; 0x80021c <parpadearFlag>
				apagarLED();
 daa:	0e 94 58 01 	call	0x2b0	; 0x2b0 <apagarLED>
				
				if(ultimoFlag==1){  // si ya se hizo la ultima tirada
 dae:	80 91 1b 02 	lds	r24, 0x021B	; 0x80021b <ultimoFlag>
 db2:	81 30       	cpi	r24, 0x01	; 1
 db4:	11 f4       	brne	.+4      	; 0xdba <main+0x1c4>
					habilitarEstadoFinal = 1;  // pasar al estado final despues del retorno
 db6:	c0 93 02 02 	sts	0x0202, r28	; 0x800202 <habilitarEstadoFinal>
				}
				
				frenoLanzador();  // frenamos el lanzador
 dba:	0e 94 e1 00 	call	0x1c2	; 0x1c2 <frenoLanzador>
 dbe:	2f ef       	ldi	r18, 0xFF	; 255
 dc0:	81 ee       	ldi	r24, 0xE1	; 225
 dc2:	94 e0       	ldi	r25, 0x04	; 4
 dc4:	21 50       	subi	r18, 0x01	; 1
 dc6:	80 40       	sbci	r24, 0x00	; 0
 dc8:	90 40       	sbci	r25, 0x00	; 0
 dca:	e1 f7       	brne	.-8      	; 0xdc4 <main+0x1ce>
 dcc:	00 c0       	rjmp	.+0      	; 0xdce <main+0x1d8>
 dce:	00 00       	nop
				_delay_ms(button_check_delay_ms);
				liberarCarrito();  // tiramos la bola
 dd0:	0e 94 20 01 	call	0x240	; 0x240 <liberarCarrito>
 dd4:	2f ef       	ldi	r18, 0xFF	; 255
 dd6:	81 ee       	ldi	r24, 0xE1	; 225
 dd8:	94 e0       	ldi	r25, 0x04	; 4
 dda:	21 50       	subi	r18, 0x01	; 1
 ddc:	80 40       	sbci	r24, 0x00	; 0
 dde:	90 40       	sbci	r25, 0x00	; 0
 de0:	e1 f7       	brne	.-8      	; 0xdda <main+0x1e4>
 de2:	00 c0       	rjmp	.+0      	; 0xde4 <main+0x1ee>
 de4:	00 00       	nop
				_delay_ms(button_check_delay_ms);
				loop_until_bit_is_clear(SW4PIN,SW4X);
 de6:	4c 99       	sbic	0x09, 4	; 9
 de8:	fe cf       	rjmp	.-4      	; 0xde6 <main+0x1f0>
				pararCarrito();
 dea:	0e 94 2c 01 	call	0x258	; 0x258 <pararCarrito>

				state = RETORNO;  // inicar estado de retorno
 dee:	10 93 0a 02 	sts	0x020A, r17	; 0x80020a <state>
				break;
 df2:	28 cf       	rjmp	.-432    	; 0xc44 <main+0x4e>
 df4:	2f ef       	ldi	r18, 0xFF	; 255
 df6:	87 ea       	ldi	r24, 0xA7	; 167
 df8:	91 e6       	ldi	r25, 0x61	; 97
 dfa:	21 50       	subi	r18, 0x01	; 1
 dfc:	80 40       	sbci	r24, 0x00	; 0
 dfe:	90 40       	sbci	r25, 0x00	; 0
 e00:	e1 f7       	brne	.-8      	; 0xdfa <main+0x204>
 e02:	00 c0       	rjmp	.+0      	; 0xe04 <main+0x20e>
 e04:	00 00       	nop
			case RETORNO:
				_delay_ms(4000);   // esperar hasta la bola llega
				recarga();
 e06:	0e 94 79 03 	call	0x6f2	; 0x6f2 <recarga>
 e0a:	2f ef       	ldi	r18, 0xFF	; 255
 e0c:	89 e6       	ldi	r24, 0x69	; 105
 e0e:	98 e1       	ldi	r25, 0x18	; 24
 e10:	21 50       	subi	r18, 0x01	; 1
 e12:	80 40       	sbci	r24, 0x00	; 0
 e14:	90 40       	sbci	r25, 0x00	; 0
 e16:	e1 f7       	brne	.-8      	; 0xe10 <main+0x21a>
 e18:	00 c0       	rjmp	.+0      	; 0xe1a <main+0x224>
 e1a:	00 00       	nop
				_delay_ms(long_delay);
				deshabilitarInterrupcionesSensores();  // evitar otras interrupciones de los bolos
 e1c:	0e 94 24 07 	call	0xe48	; 0xe48 <deshabilitarInterrupcionesSensores>
				if(habilitarEstadoFinal==1){ // si hemos tirado la bola y ya estamos en el ultimo disparo
 e20:	80 91 02 02 	lds	r24, 0x0202	; 0x800202 <habilitarEstadoFinal>
 e24:	81 30       	cpi	r24, 0x01	; 1
 e26:	19 f4       	brne	.+6      	; 0xe2e <main+0x238>
					state = FINAL;  // volver a primer estado de espera
 e28:	f0 92 0a 02 	sts	0x020A, r15	; 0x80020a <state>
 e2c:	0b cf       	rjmp	.-490    	; 0xc44 <main+0x4e>
				}
				else{
					state = SIN_BOLA; // volver a recoger la bola 
 e2e:	c0 93 0a 02 	sts	0x020A, r28	; 0x80020a <state>
 e32:	08 cf       	rjmp	.-496    	; 0xc44 <main+0x4e>
				}
				break;
			case FINAL:
				finalizadoFlag = 1;  // parpadear display
 e34:	c0 93 04 02 	sts	0x0204, r28	; 0x800204 <__data_end>
				break;
 e38:	05 cf       	rjmp	.-502    	; 0xc44 <main+0x4e>
			default:
				state = HOME;
 e3a:	10 92 0a 02 	sts	0x020A, r1	; 0x80020a <state>
				break;
 e3e:	02 cf       	rjmp	.-508    	; 0xc44 <main+0x4e>

00000e40 <habilitarInterrupcionesSensores>:
uint8_t getPuntacion(){
	return puntuacion;
}

void setPuntuacion(uint8_t num){
	puntuacion = num;
 e40:	8f e3       	ldi	r24, 0x3F	; 63
 e42:	80 93 6d 00 	sts	0x006D, r24	; 0x80006d <__TEXT_REGION_LENGTH__+0x7f006d>
 e46:	08 95       	ret

00000e48 <deshabilitarInterrupcionesSensores>:
 e48:	10 92 6d 00 	sts	0x006D, r1	; 0x80006d <__TEXT_REGION_LENGTH__+0x7f006d>
 e4c:	08 95       	ret

00000e4e <OnPinChangeBolos>:
}


inline void OnPinChangeBolos(){
	puntuacion++;
 e4e:	80 91 1d 02 	lds	r24, 0x021D	; 0x80021d <puntuacion>
 e52:	8f 5f       	subi	r24, 0xFF	; 255
 e54:	80 93 1d 02 	sts	0x021D, r24	; 0x80021d <puntuacion>
	uint8_t puertoactual = ~PINK;  //PINK normalmente estará a 1 !!
 e58:	80 91 06 01 	lds	r24, 0x0106	; 0x800106 <__TEXT_REGION_LENGTH__+0x7f0106>
 e5c:	80 95       	com	r24
	//volatile uint8_t bitscambiados= 0;
	//	bitscambiados = ~(puertoactual ^ puertoanterior); //Lo negamos por el tema de que esta en nivel alto y pasa a nivel bajo
	
	//AND bit a bit para determinar si un bit en particular ha cambiado en el puerto
	if(puertoactual & (0b00000001)){
 e5e:	80 ff       	sbrs	r24, 0
 e60:	05 c0       	rjmp	.+10     	; 0xe6c <OnPinChangeBolos+0x1e>
		PCMSK2 &=~(1<<PCINT16);
 e62:	ed e6       	ldi	r30, 0x6D	; 109
 e64:	f0 e0       	ldi	r31, 0x00	; 0
 e66:	90 81       	ld	r25, Z
 e68:	9e 7f       	andi	r25, 0xFE	; 254
 e6a:	90 83       	st	Z, r25
	} //Deshabilito esa interrupcion para que no rebote
	if(puertoactual & (0b00000010)){
 e6c:	81 ff       	sbrs	r24, 1
 e6e:	05 c0       	rjmp	.+10     	; 0xe7a <OnPinChangeBolos+0x2c>
		PCMSK2 &=~(1<<PCINT17);
 e70:	ed e6       	ldi	r30, 0x6D	; 109
 e72:	f0 e0       	ldi	r31, 0x00	; 0
 e74:	90 81       	ld	r25, Z
 e76:	9d 7f       	andi	r25, 0xFD	; 253
 e78:	90 83       	st	Z, r25
	}
	if(puertoactual & (0b00000100)){
 e7a:	82 ff       	sbrs	r24, 2
 e7c:	05 c0       	rjmp	.+10     	; 0xe88 <OnPinChangeBolos+0x3a>
		PCMSK2 &=~(1<<PCINT18);
 e7e:	ed e6       	ldi	r30, 0x6D	; 109
 e80:	f0 e0       	ldi	r31, 0x00	; 0
 e82:	90 81       	ld	r25, Z
 e84:	9b 7f       	andi	r25, 0xFB	; 251
 e86:	90 83       	st	Z, r25
	}
	if(puertoactual & (0b00001000)){
 e88:	83 ff       	sbrs	r24, 3
 e8a:	05 c0       	rjmp	.+10     	; 0xe96 <OnPinChangeBolos+0x48>
		PCMSK2 &=~(1<<PCINT19);
 e8c:	ed e6       	ldi	r30, 0x6D	; 109
 e8e:	f0 e0       	ldi	r31, 0x00	; 0
 e90:	90 81       	ld	r25, Z
 e92:	97 7f       	andi	r25, 0xF7	; 247
 e94:	90 83       	st	Z, r25
	}
	if(puertoactual & (0b00010000)){
 e96:	84 ff       	sbrs	r24, 4
 e98:	05 c0       	rjmp	.+10     	; 0xea4 <OnPinChangeBolos+0x56>
		PCMSK2 &=~(1<<PCINT20);
 e9a:	ed e6       	ldi	r30, 0x6D	; 109
 e9c:	f0 e0       	ldi	r31, 0x00	; 0
 e9e:	90 81       	ld	r25, Z
 ea0:	9f 7e       	andi	r25, 0xEF	; 239
 ea2:	90 83       	st	Z, r25
	}
	if(puertoactual & (0b00100000)){
 ea4:	85 ff       	sbrs	r24, 5
 ea6:	05 c0       	rjmp	.+10     	; 0xeb2 <OnPinChangeBolos+0x64>
		PCMSK2 &=~(1<<PCINT21);
 ea8:	ed e6       	ldi	r30, 0x6D	; 109
 eaa:	f0 e0       	ldi	r31, 0x00	; 0
 eac:	80 81       	ld	r24, Z
 eae:	8f 7d       	andi	r24, 0xDF	; 223
 eb0:	80 83       	st	Z, r24
 eb2:	08 95       	ret

00000eb4 <__udivmodsi4>:
 eb4:	a1 e2       	ldi	r26, 0x21	; 33
 eb6:	1a 2e       	mov	r1, r26
 eb8:	aa 1b       	sub	r26, r26
 eba:	bb 1b       	sub	r27, r27
 ebc:	fd 01       	movw	r30, r26
 ebe:	0d c0       	rjmp	.+26     	; 0xeda <__udivmodsi4_ep>

00000ec0 <__udivmodsi4_loop>:
 ec0:	aa 1f       	adc	r26, r26
 ec2:	bb 1f       	adc	r27, r27
 ec4:	ee 1f       	adc	r30, r30
 ec6:	ff 1f       	adc	r31, r31
 ec8:	a2 17       	cp	r26, r18
 eca:	b3 07       	cpc	r27, r19
 ecc:	e4 07       	cpc	r30, r20
 ece:	f5 07       	cpc	r31, r21
 ed0:	20 f0       	brcs	.+8      	; 0xeda <__udivmodsi4_ep>
 ed2:	a2 1b       	sub	r26, r18
 ed4:	b3 0b       	sbc	r27, r19
 ed6:	e4 0b       	sbc	r30, r20
 ed8:	f5 0b       	sbc	r31, r21

00000eda <__udivmodsi4_ep>:
 eda:	66 1f       	adc	r22, r22
 edc:	77 1f       	adc	r23, r23
 ede:	88 1f       	adc	r24, r24
 ee0:	99 1f       	adc	r25, r25
 ee2:	1a 94       	dec	r1
 ee4:	69 f7       	brne	.-38     	; 0xec0 <__udivmodsi4_loop>
 ee6:	60 95       	com	r22
 ee8:	70 95       	com	r23
 eea:	80 95       	com	r24
 eec:	90 95       	com	r25
 eee:	9b 01       	movw	r18, r22
 ef0:	ac 01       	movw	r20, r24
 ef2:	bd 01       	movw	r22, r26
 ef4:	cf 01       	movw	r24, r30
 ef6:	08 95       	ret

00000ef8 <__tablejump2__>:
 ef8:	ee 0f       	add	r30, r30
 efa:	ff 1f       	adc	r31, r31
 efc:	05 90       	lpm	r0, Z+
 efe:	f4 91       	lpm	r31, Z
 f00:	e0 2d       	mov	r30, r0
 f02:	09 94       	ijmp

00000f04 <_exit>:
 f04:	f8 94       	cli

00000f06 <__stop_program>:
 f06:	ff cf       	rjmp	.-2      	; 0xf06 <__stop_program>
