
PruebaGlobal.elf:     file format elf32-avr

Sections:
Idx Name          Size      VMA       LMA       File off  Algn
  0 .data         00000004  00800200  00000bde  00000c72  2**0
                  CONTENTS, ALLOC, LOAD, DATA
  1 .text         00000bde  00000000  00000000  00000094  2**1
                  CONTENTS, ALLOC, LOAD, READONLY, CODE
  2 .bss          00000015  00800204  00800204  00000c76  2**0
                  ALLOC
  3 .comment      00000030  00000000  00000000  00000c76  2**0
                  CONTENTS, READONLY
  4 .note.gnu.avr.deviceinfo 0000003c  00000000  00000000  00000ca8  2**2
                  CONTENTS, READONLY
  5 .debug_aranges 000002b0  00000000  00000000  00000ce8  2**3
                  CONTENTS, READONLY, DEBUGGING
  6 .debug_info   0000218b  00000000  00000000  00000f98  2**0
                  CONTENTS, READONLY, DEBUGGING
  7 .debug_abbrev 000011e9  00000000  00000000  00003123  2**0
                  CONTENTS, READONLY, DEBUGGING
  8 .debug_line   00001511  00000000  00000000  0000430c  2**0
                  CONTENTS, READONLY, DEBUGGING
  9 .debug_frame  000005d0  00000000  00000000  00005820  2**2
                  CONTENTS, READONLY, DEBUGGING
 10 .debug_str    00000a70  00000000  00000000  00005df0  2**0
                  CONTENTS, READONLY, DEBUGGING
 11 .debug_loc    000008e1  00000000  00000000  00006860  2**0
                  CONTENTS, READONLY, DEBUGGING
 12 .debug_ranges 00000220  00000000  00000000  00007141  2**0
                  CONTENTS, READONLY, DEBUGGING

Disassembly of section .text:

00000000 <__vectors>:
   0:	0c 94 83 00 	jmp	0x106	; 0x106 <__ctors_end>
   4:	0c 94 fc 03 	jmp	0x7f8	; 0x7f8 <__vector_1>
   8:	0c 94 a0 00 	jmp	0x140	; 0x140 <__bad_interrupt>
   c:	0c 94 24 04 	jmp	0x848	; 0x848 <__vector_3>
  10:	0c 94 a0 00 	jmp	0x140	; 0x140 <__bad_interrupt>
  14:	0c 94 a0 00 	jmp	0x140	; 0x140 <__bad_interrupt>
  18:	0c 94 a0 00 	jmp	0x140	; 0x140 <__bad_interrupt>
  1c:	0c 94 a0 00 	jmp	0x140	; 0x140 <__bad_interrupt>
  20:	0c 94 a0 00 	jmp	0x140	; 0x140 <__bad_interrupt>
  24:	0c 94 a0 00 	jmp	0x140	; 0x140 <__bad_interrupt>
  28:	0c 94 a0 00 	jmp	0x140	; 0x140 <__bad_interrupt>
  2c:	0c 94 d8 03 	jmp	0x7b0	; 0x7b0 <__vector_11>
  30:	0c 94 a0 00 	jmp	0x140	; 0x140 <__bad_interrupt>
  34:	0c 94 a0 00 	jmp	0x140	; 0x140 <__bad_interrupt>
  38:	0c 94 a0 00 	jmp	0x140	; 0x140 <__bad_interrupt>
  3c:	0c 94 a0 00 	jmp	0x140	; 0x140 <__bad_interrupt>
  40:	0c 94 a0 00 	jmp	0x140	; 0x140 <__bad_interrupt>
  44:	0c 94 a6 03 	jmp	0x74c	; 0x74c <__vector_17>
  48:	0c 94 a0 00 	jmp	0x140	; 0x140 <__bad_interrupt>
  4c:	0c 94 a0 00 	jmp	0x140	; 0x140 <__bad_interrupt>
  50:	0c 94 a0 00 	jmp	0x140	; 0x140 <__bad_interrupt>
  54:	0c 94 7a 03 	jmp	0x6f4	; 0x6f4 <__vector_21>
  58:	0c 94 a0 00 	jmp	0x140	; 0x140 <__bad_interrupt>
  5c:	0c 94 a0 00 	jmp	0x140	; 0x140 <__bad_interrupt>
  60:	0c 94 a0 00 	jmp	0x140	; 0x140 <__bad_interrupt>
  64:	0c 94 a0 00 	jmp	0x140	; 0x140 <__bad_interrupt>
  68:	0c 94 a0 00 	jmp	0x140	; 0x140 <__bad_interrupt>
  6c:	0c 94 a0 00 	jmp	0x140	; 0x140 <__bad_interrupt>
  70:	0c 94 a0 00 	jmp	0x140	; 0x140 <__bad_interrupt>
  74:	0c 94 a0 00 	jmp	0x140	; 0x140 <__bad_interrupt>
  78:	0c 94 a0 00 	jmp	0x140	; 0x140 <__bad_interrupt>
  7c:	0c 94 a0 00 	jmp	0x140	; 0x140 <__bad_interrupt>
  80:	0c 94 a0 00 	jmp	0x140	; 0x140 <__bad_interrupt>
  84:	0c 94 a0 00 	jmp	0x140	; 0x140 <__bad_interrupt>
  88:	0c 94 a0 00 	jmp	0x140	; 0x140 <__bad_interrupt>
  8c:	0c 94 a0 00 	jmp	0x140	; 0x140 <__bad_interrupt>
  90:	0c 94 a0 00 	jmp	0x140	; 0x140 <__bad_interrupt>
  94:	0c 94 a0 00 	jmp	0x140	; 0x140 <__bad_interrupt>
  98:	0c 94 a0 00 	jmp	0x140	; 0x140 <__bad_interrupt>
  9c:	0c 94 a0 00 	jmp	0x140	; 0x140 <__bad_interrupt>
  a0:	0c 94 a0 00 	jmp	0x140	; 0x140 <__bad_interrupt>
  a4:	0c 94 a0 00 	jmp	0x140	; 0x140 <__bad_interrupt>
  a8:	0c 94 a0 00 	jmp	0x140	; 0x140 <__bad_interrupt>
  ac:	0c 94 a0 00 	jmp	0x140	; 0x140 <__bad_interrupt>
  b0:	0c 94 a0 00 	jmp	0x140	; 0x140 <__bad_interrupt>
  b4:	0c 94 a0 00 	jmp	0x140	; 0x140 <__bad_interrupt>
  b8:	0c 94 a0 00 	jmp	0x140	; 0x140 <__bad_interrupt>
  bc:	0c 94 a0 00 	jmp	0x140	; 0x140 <__bad_interrupt>
  c0:	0c 94 a0 00 	jmp	0x140	; 0x140 <__bad_interrupt>
  c4:	0c 94 a0 00 	jmp	0x140	; 0x140 <__bad_interrupt>
  c8:	0c 94 a0 00 	jmp	0x140	; 0x140 <__bad_interrupt>
  cc:	0c 94 a0 00 	jmp	0x140	; 0x140 <__bad_interrupt>
  d0:	0c 94 a0 00 	jmp	0x140	; 0x140 <__bad_interrupt>
  d4:	0c 94 a0 00 	jmp	0x140	; 0x140 <__bad_interrupt>
  d8:	0c 94 a0 00 	jmp	0x140	; 0x140 <__bad_interrupt>
  dc:	0c 94 a0 00 	jmp	0x140	; 0x140 <__bad_interrupt>
  e0:	0c 94 a0 00 	jmp	0x140	; 0x140 <__bad_interrupt>
  e4:	ad 01       	movw	r20, r26
  e6:	af 01       	movw	r20, r30
  e8:	b1 01       	movw	r22, r2
  ea:	b3 01       	movw	r22, r6
  ec:	b5 01       	movw	r22, r10
  ee:	b7 01       	movw	r22, r14
  f0:	b9 01       	movw	r22, r18
  f2:	bb 01       	movw	r22, r22
  f4:	bd 01       	movw	r22, r26
  f6:	bf 01       	movw	r22, r30
  f8:	8b 04       	cpc	r8, r11
  fa:	94 04       	cpc	r9, r4
  fc:	b9 04       	cpc	r11, r9
  fe:	13 05       	cpc	r17, r3
 100:	1f 05       	cpc	r17, r15
 102:	5a 05       	cpc	r21, r10
 104:	7a 05       	cpc	r23, r10

00000106 <__ctors_end>:
 106:	11 24       	eor	r1, r1
 108:	1f be       	out	0x3f, r1	; 63
 10a:	cf ef       	ldi	r28, 0xFF	; 255
 10c:	d1 e2       	ldi	r29, 0x21	; 33
 10e:	de bf       	out	0x3e, r29	; 62
 110:	cd bf       	out	0x3d, r28	; 61

00000112 <__do_copy_data>:
 112:	12 e0       	ldi	r17, 0x02	; 2
 114:	a0 e0       	ldi	r26, 0x00	; 0
 116:	b2 e0       	ldi	r27, 0x02	; 2
 118:	ee ed       	ldi	r30, 0xDE	; 222
 11a:	fb e0       	ldi	r31, 0x0B	; 11
 11c:	02 c0       	rjmp	.+4      	; 0x122 <__do_copy_data+0x10>
 11e:	05 90       	lpm	r0, Z+
 120:	0d 92       	st	X+, r0
 122:	a4 30       	cpi	r26, 0x04	; 4
 124:	b1 07       	cpc	r27, r17
 126:	d9 f7       	brne	.-10     	; 0x11e <__do_copy_data+0xc>

00000128 <__do_clear_bss>:
 128:	22 e0       	ldi	r18, 0x02	; 2
 12a:	a4 e0       	ldi	r26, 0x04	; 4
 12c:	b2 e0       	ldi	r27, 0x02	; 2
 12e:	01 c0       	rjmp	.+2      	; 0x132 <.do_clear_bss_start>

00000130 <.do_clear_bss_loop>:
 130:	1d 92       	st	X+, r1

00000132 <.do_clear_bss_start>:
 132:	a9 31       	cpi	r26, 0x19	; 25
 134:	b2 07       	cpc	r27, r18
 136:	e1 f7       	brne	.-8      	; 0x130 <.do_clear_bss_loop>
 138:	0e 94 5c 04 	call	0x8b8	; 0x8b8 <main>
 13c:	0c 94 ed 05 	jmp	0xbda	; 0xbda <_exit>

00000140 <__bad_interrupt>:
 140:	0c 94 00 00 	jmp	0	; 0x0 <__vectors>

00000144 <setup_timer0>:
.globl setup_timer0
.type integrate, @function
setup_timer0:
	push r24      // Push the value of r24 onto the stack
 144:	8f 93       	push	r24
	cli
 146:	f8 94       	cli
	ldi r24, 0b00000010 // Load the value of OCR0A into r24
 148:	82 e0       	ldi	r24, 0x02	; 2
	out 0x24, r24
 14a:	84 bd       	out	0x24, r24	; 36
	ldi r24, 0b00000100
 14c:	84 e0       	ldi	r24, 0x04	; 4
	out 0x25, r24
 14e:	85 bd       	out	0x25, r24	; 37
	ldi r24, 0b00000010
 150:	82 e0       	ldi	r24, 0x02	; 2
	//out 0x6e, r24
	//sbi 0x6e, 2
	sts 0x6e, r24
 152:	80 93 6e 00 	sts	0x006E, r24	; 0x80006e <__TEXT_REGION_LENGTH__+0x7f006e>
	ldi r24, 0x9C
 156:	8c e9       	ldi	r24, 0x9C	; 156
	out 0x27, r24
 158:	87 bd       	out	0x27, r24	; 39
	sei
 15a:	78 94       	sei
 15c:	8f 91       	pop	r24

0000015e <girarLanzador>:
//MACROS

// getter para los sensores opticos
inline int getOptico(int num){
	return readBit(SOPIN, num);
}
 15e:	20 91 0b 01 	lds	r18, 0x010B	; 0x80010b <__TEXT_REGION_LENGTH__+0x7f010b>
 162:	2d 7f       	andi	r18, 0xFD	; 253
 164:	20 93 0b 01 	sts	0x010B, r18	; 0x80010b <__TEXT_REGION_LENGTH__+0x7f010b>
 168:	80 93 00 02 	sts	0x0200, r24	; 0x800200 <__DATA_REGION_ORIGIN__>
 16c:	81 30       	cpi	r24, 0x01	; 1
 16e:	91 05       	cpc	r25, r1
 170:	21 f4       	brne	.+8      	; 0x17a <girarLanzador+0x1c>
 172:	80 91 08 01 	lds	r24, 0x0108	; 0x800108 <__TEXT_REGION_LENGTH__+0x7f0108>
 176:	80 68       	ori	r24, 0x80	; 128
 178:	05 c0       	rjmp	.+10     	; 0x184 <girarLanzador+0x26>
 17a:	89 2b       	or	r24, r25
 17c:	29 f4       	brne	.+10     	; 0x188 <girarLanzador+0x2a>
 17e:	80 91 08 01 	lds	r24, 0x0108	; 0x800108 <__TEXT_REGION_LENGTH__+0x7f0108>
 182:	8f 77       	andi	r24, 0x7F	; 127
 184:	80 93 08 01 	sts	0x0108, r24	; 0x800108 <__TEXT_REGION_LENGTH__+0x7f0108>
 188:	80 91 0b 01 	lds	r24, 0x010B	; 0x80010b <__TEXT_REGION_LENGTH__+0x7f010b>
 18c:	82 60       	ori	r24, 0x02	; 2
 18e:	80 93 0b 01 	sts	0x010B, r24	; 0x80010b <__TEXT_REGION_LENGTH__+0x7f010b>
 192:	80 91 0b 01 	lds	r24, 0x010B	; 0x80010b <__TEXT_REGION_LENGTH__+0x7f010b>
 196:	87 7f       	andi	r24, 0xF7	; 247
 198:	80 93 0b 01 	sts	0x010B, r24	; 0x80010b <__TEXT_REGION_LENGTH__+0x7f010b>
 19c:	08 95       	ret

0000019e <frenoLanzador>:
 19e:	eb e0       	ldi	r30, 0x0B	; 11
 1a0:	f1 e0       	ldi	r31, 0x01	; 1
 1a2:	80 81       	ld	r24, Z
 1a4:	88 60       	ori	r24, 0x08	; 8
 1a6:	80 83       	st	Z, r24
 1a8:	80 81       	ld	r24, Z
 1aa:	8d 7f       	andi	r24, 0xFD	; 253
 1ac:	80 83       	st	Z, r24
 1ae:	82 e0       	ldi	r24, 0x02	; 2
 1b0:	80 93 00 02 	sts	0x0200, r24	; 0x800200 <__DATA_REGION_ORIGIN__>
 1b4:	08 95       	ret

000001b6 <pararLanzador>:
 1b6:	eb e0       	ldi	r30, 0x0B	; 11
 1b8:	f1 e0       	ldi	r31, 0x01	; 1
 1ba:	80 81       	ld	r24, Z
 1bc:	8d 7f       	andi	r24, 0xFD	; 253
 1be:	80 83       	st	Z, r24
 1c0:	82 e0       	ldi	r24, 0x02	; 2
 1c2:	80 93 00 02 	sts	0x0200, r24	; 0x800200 <__DATA_REGION_ORIGIN__>
 1c6:	08 95       	ret

000001c8 <pararVastago>:
 1c8:	eb e0       	ldi	r30, 0x0B	; 11
 1ca:	f1 e0       	ldi	r31, 0x01	; 1
 1cc:	80 81       	ld	r24, Z
 1ce:	8f 7e       	andi	r24, 0xEF	; 239
 1d0:	80 83       	st	Z, r24
 1d2:	08 95       	ret

000001d4 <moverVastagoAdelante>:
 1d4:	0e 94 e4 00 	call	0x1c8	; 0x1c8 <pararVastago>
 1d8:	eb e0       	ldi	r30, 0x0B	; 11
 1da:	f1 e0       	ldi	r31, 0x01	; 1
 1dc:	80 81       	ld	r24, Z
 1de:	84 60       	ori	r24, 0x04	; 4
 1e0:	80 83       	st	Z, r24
 1e2:	80 81       	ld	r24, Z
 1e4:	80 61       	ori	r24, 0x10	; 16
 1e6:	80 83       	st	Z, r24
 1e8:	08 95       	ret

000001ea <moverVastagoAtras>:
 1ea:	0e 94 e4 00 	call	0x1c8	; 0x1c8 <pararVastago>
 1ee:	eb e0       	ldi	r30, 0x0B	; 11
 1f0:	f1 e0       	ldi	r31, 0x01	; 1
 1f2:	80 81       	ld	r24, Z
 1f4:	8b 7f       	andi	r24, 0xFB	; 251
 1f6:	80 83       	st	Z, r24
 1f8:	80 81       	ld	r24, Z
 1fa:	80 61       	ori	r24, 0x10	; 16
 1fc:	80 83       	st	Z, r24
 1fe:	08 95       	ret

00000200 <pararCarrito>:
 200:	eb e0       	ldi	r30, 0x0B	; 11
 202:	f1 e0       	ldi	r31, 0x01	; 1
 204:	80 81       	ld	r24, Z
 206:	8f 77       	andi	r24, 0x7F	; 127
 208:	80 83       	st	Z, r24
 20a:	08 95       	ret

0000020c <engancharCarrito>:
 20c:	0e 94 00 01 	call	0x200	; 0x200 <pararCarrito>
 210:	eb e0       	ldi	r30, 0x0B	; 11
 212:	f1 e0       	ldi	r31, 0x01	; 1
 214:	80 81       	ld	r24, Z
 216:	80 62       	ori	r24, 0x20	; 32
 218:	80 83       	st	Z, r24
 21a:	80 81       	ld	r24, Z
 21c:	80 68       	ori	r24, 0x80	; 128
 21e:	80 83       	st	Z, r24
 220:	08 95       	ret

00000222 <liberarCarrito>:
 222:	0e 94 00 01 	call	0x200	; 0x200 <pararCarrito>
 226:	eb e0       	ldi	r30, 0x0B	; 11
 228:	f1 e0       	ldi	r31, 0x01	; 1
 22a:	80 81       	ld	r24, Z
 22c:	8f 7d       	andi	r24, 0xDF	; 223
 22e:	80 83       	st	Z, r24
 230:	80 81       	ld	r24, Z
 232:	80 68       	ori	r24, 0x80	; 128
 234:	80 83       	st	Z, r24
 236:	08 95       	ret

00000238 <getSensor3>:
 238:	89 b1       	in	r24, 0x09	; 9
 23a:	86 95       	lsr	r24
 23c:	81 70       	andi	r24, 0x01	; 1
 23e:	90 e0       	ldi	r25, 0x00	; 0
 240:	08 95       	ret

00000242 <getSensor4>:
 242:	89 b1       	in	r24, 0x09	; 9
 244:	82 95       	swap	r24
 246:	81 70       	andi	r24, 0x01	; 1
 248:	90 e0       	ldi	r25, 0x00	; 0
 24a:	08 95       	ret

0000024c <encenderLED>:
// *******
// LED Y DISPLAYS
// *******

inline void encenderLED(){
	setBit(L1PORT, L1X);
 24c:	eb e0       	ldi	r30, 0x0B	; 11
 24e:	f1 e0       	ldi	r31, 0x01	; 1
 250:	80 81       	ld	r24, Z
 252:	80 64       	ori	r24, 0x40	; 64
 254:	80 83       	st	Z, r24
 256:	08 95       	ret

00000258 <apagarLED>:
}

inline void apagarLED(){
	clearBit(L1PORT, L1X);
 258:	eb e0       	ldi	r30, 0x0B	; 11
 25a:	f1 e0       	ldi	r31, 0x01	; 1
 25c:	80 81       	ld	r24, Z
 25e:	8f 7b       	andi	r24, 0xBF	; 191
 260:	80 83       	st	Z, r24
 262:	08 95       	ret

00000264 <setup_puertos>:
// 		// Esperar hasta que se alcance el tiempo deseado
// 	}
// }

void setup_puertos(){  // solo para Sensores Opticos y Displays
cli();
 264:	f8 94       	cli
//Puerto K						controla PCINTS para sensores de los bolos como entradas y además las señales 'direccion' del Motor M1 y M2 que son salidas. Comprobar si necesitan sus interrupciones activadas o no.		SensoresBolos.c
	//DDRK = 0xC0;				//0b11000000
	setBit(M2_diDDR,M2_di_X);
 266:	e7 e0       	ldi	r30, 0x07	; 7
 268:	f1 e0       	ldi	r31, 0x01	; 1
 26a:	80 81       	ld	r24, Z
 26c:	80 68       	ori	r24, 0x80	; 128
 26e:	80 83       	st	Z, r24
	setBit(M1_diDDR,M1_di_X);
 270:	80 81       	ld	r24, Z
 272:	80 64       	ori	r24, 0x40	; 64
 274:	80 83       	st	Z, r24
	//PCICR = (1<<PCIE2);			// Para activar las PCINT globalmente del grupo 3 (PCINT16-PCINT23)
	setBit(PCICR,PCIE2);
 276:	e8 e6       	ldi	r30, 0x68	; 104
 278:	f0 e0       	ldi	r31, 0x00	; 0
 27a:	80 81       	ld	r24, Z
 27c:	84 60       	ori	r24, 0x04	; 4
 27e:	80 83       	st	Z, r24
// 	setBit(PCMSK2,1);
// 	setBit(PCMSK2,0);
	
//Puerto B						controla display de 7 segmentos y el selector de display. Se trata como salidas.
	//DDRB = 0xFF;				//Puerto B configurado como salidas para controlar display 7 segmentos y selector
	setBit(DaDDR,DaX);
 280:	20 9a       	sbi	0x04, 0	; 4
	setBit(DbDDR,DbX);
 282:	21 9a       	sbi	0x04, 1	; 4
	setBit(DcDDR,DcX);
 284:	22 9a       	sbi	0x04, 2	; 4
	setBit(DdDDR,DdX);
 286:	23 9a       	sbi	0x04, 3	; 4
	setBit(DeDDR,DeX);
 288:	24 9a       	sbi	0x04, 4	; 4
	setBit(DfDDR,DfX);
 28a:	25 9a       	sbi	0x04, 5	; 4
	setBit(DgDDR,DgX);  // Thanos: cambiado DfX por dgX
 28c:	26 9a       	sbi	0x04, 6	; 4
	setBit(DSDDR,DSX);
 28e:	27 9a       	sbi	0x04, 7	; 4
	//PORTB = 0b00111111;			//Inicialemente display muestra 0 en el display 0
	setBit(DfPORT,DfX);							//Puerto B tiene PCINT0-PCINT7 pero no los utilizamos.
 290:	2d 9a       	sbi	0x05, 5	; 5
	setBit(DePORT,DeX);	
 292:	2c 9a       	sbi	0x05, 4	; 5
	setBit(DdPORT,DdX);	
 294:	2b 9a       	sbi	0x05, 3	; 5
	setBit(DcPORT,DcX);	
 296:	2a 9a       	sbi	0x05, 2	; 5
	setBit(DbPORT,DbX);
 298:	29 9a       	sbi	0x05, 1	; 5
	setBit(DaPORT,DaX);		
 29a:	28 9a       	sbi	0x05, 0	; 5
//Puerto D						dedicado a los fines de carrera como entradas SW y a manejar el motor M5, tratado como salidas.
	//DDRD = 0b10100000;			//PD7 y PD5 son salidas para el motor M5, el resto entradas para los SWi.
	setBit(M5_enDDR,M5_en_X);
 29c:	57 9a       	sbi	0x0a, 7	; 10
	setBit(M5_diDDR,M5_di_X);
 29e:	55 9a       	sbi	0x0a, 5	; 10
	//EICRA = 0xAA;				//0b10101010Todas las int por flanco de bajada 	//Puerto D tiene INT0-INT3 en sus cuatro primeros bits
	//setBit(EICRA,7);			// deshabilitado por problemas INT3 (Thanos 25/05)
	setBit(EICRA,5);
 2a0:	e9 e6       	ldi	r30, 0x69	; 105
 2a2:	f0 e0       	ldi	r31, 0x00	; 0
 2a4:	80 81       	ld	r24, Z
 2a6:	80 62       	ori	r24, 0x20	; 32
 2a8:	80 83       	st	Z, r24
	/*setBit(EICRA,3);*/	 //Nueva actualziacion
	setBit(EICRA,1);
 2aa:	80 81       	ld	r24, Z
 2ac:	82 60       	ori	r24, 0x02	; 2
 2ae:	80 83       	st	Z, r24
	//EIMSK = 0x0F;				//Habilitar interrupciones INT0-INT3
	enableInterrupt(SW2EIFR);
 2b0:	e8 9a       	sbi	0x1d, 0	; 29
	//enableInterrupt(SW5EIFR);  // deshabilitado por problemas (Thanos 25/05)
	//setBit(EIMSK,1);         Thanos no usaba interrupciones para sensor vástago
	enableInterrupt(SW6EIFR);
 2b2:	ea 9a       	sbi	0x1d, 2	; 29
//Puerto L						dedicado al manejo de los motores y al LED del sistema lanzador. Todo salidas
	//DDRL = 0xFF;	
	setBit(M1_enDDR,M1_en_X);
 2b4:	ea e0       	ldi	r30, 0x0A	; 10
 2b6:	f1 e0       	ldi	r31, 0x01	; 1
 2b8:	80 81       	ld	r24, Z
 2ba:	81 60       	ori	r24, 0x01	; 1
 2bc:	80 83       	st	Z, r24
	setBit(M2_enDDR,M2_en_X);
 2be:	80 81       	ld	r24, Z
 2c0:	82 60       	ori	r24, 0x02	; 2
 2c2:	80 83       	st	Z, r24
	setBit(M3_diDDR,M3_di_X);
 2c4:	80 81       	ld	r24, Z
 2c6:	84 60       	ori	r24, 0x04	; 4
 2c8:	80 83       	st	Z, r24
	setBit(M2_bkDDR,M2_bk_X);
 2ca:	80 81       	ld	r24, Z
 2cc:	88 60       	ori	r24, 0x08	; 8
 2ce:	80 83       	st	Z, r24
	setBit(M3_enDDR,M3_en_X);
 2d0:	80 81       	ld	r24, Z
 2d2:	80 61       	ori	r24, 0x10	; 16
 2d4:	80 83       	st	Z, r24
	setBit(M4_diDDR,M4_di_X);
 2d6:	80 81       	ld	r24, Z
 2d8:	80 62       	ori	r24, 0x20	; 32
 2da:	80 83       	st	Z, r24
	setBit(L1DDR,L1X);
 2dc:	80 81       	ld	r24, Z
 2de:	80 64       	ori	r24, 0x40	; 64
 2e0:	80 83       	st	Z, r24
	setBit(M4_enDDR,M4_en_X);
 2e2:	80 81       	ld	r24, Z
 2e4:	80 68       	ori	r24, 0x80	; 128
 2e6:	80 83       	st	Z, r24
	
sei();
 2e8:	78 94       	sei
 2ea:	08 95       	ret

000002ec <resetTimer1>:
}

*/

inline void resetTimer1(){
	TCNT1 = 0x00;
 2ec:	10 92 85 00 	sts	0x0085, r1	; 0x800085 <__TEXT_REGION_LENGTH__+0x7f0085>
 2f0:	10 92 84 00 	sts	0x0084, r1	; 0x800084 <__TEXT_REGION_LENGTH__+0x7f0084>
 2f4:	08 95       	ret

000002f6 <disableTimer1Int>:
}

inline void disableTimer1Int(){
	TIMSK1 = 0x00;
 2f6:	10 92 6f 00 	sts	0x006F, r1	; 0x80006f <__TEXT_REGION_LENGTH__+0x7f006f>
 2fa:	08 95       	ret

000002fc <enableTimer1Int>:
}

inline void enableTimer1Int(){
	TIMSK1 = 0b00000010;
 2fc:	82 e0       	ldi	r24, 0x02	; 2
 2fe:	80 93 6f 00 	sts	0x006F, r24	; 0x80006f <__TEXT_REGION_LENGTH__+0x7f006f>
 302:	08 95       	ret

00000304 <setup_timer1>:
}

void setup_timer1(){			//Preparado para interrumpir cada 30 seg
	cli();
 304:	f8 94       	cli
	//TCCR1A = 0b00000000;
	//TCCR1B = 0b00001101;		//Prescalado 1024
	setBit(TCCR1B,CS10);
 306:	e1 e8       	ldi	r30, 0x81	; 129
 308:	f0 e0       	ldi	r31, 0x00	; 0
 30a:	80 81       	ld	r24, Z
 30c:	81 60       	ori	r24, 0x01	; 1
 30e:	80 83       	st	Z, r24
	setBit(TCCR1B,CS12);
 310:	80 81       	ld	r24, Z
 312:	84 60       	ori	r24, 0x04	; 4
 314:	80 83       	st	Z, r24
	setBit(TCCR1B,WGM12);
 316:	80 81       	ld	r24, Z
 318:	88 60       	ori	r24, 0x08	; 8
 31a:	80 83       	st	Z, r24
	//TIMSK1 = (1<<OCIE1A);
	setBit(TIMSK1,OCIE1A);
 31c:	ef e6       	ldi	r30, 0x6F	; 111
 31e:	f0 e0       	ldi	r31, 0x00	; 0
 320:	80 81       	ld	r24, Z
 322:	82 60       	ori	r24, 0x02	; 2
 324:	80 83       	st	Z, r24
	OCR1A  = 23437;				// timer para interrumpir cada 3 segundos
 326:	8d e8       	ldi	r24, 0x8D	; 141
 328:	9b e5       	ldi	r25, 0x5B	; 91
 32a:	90 93 89 00 	sts	0x0089, r25	; 0x800089 <__TEXT_REGION_LENGTH__+0x7f0089>
 32e:	80 93 88 00 	sts	0x0088, r24	; 0x800088 <__TEXT_REGION_LENGTH__+0x7f0088>
	sei();
 332:	78 94       	sei
 334:	08 95       	ret

00000336 <apagarDisplay>:
volatile uint8_t finalizadoFlag = 0;
uint16_t pulsador;  // se usa esta variable?
volatile uint8_t puntuacion;

inline void apagarDisplay(){
	clearBitMask(DSPORT, 0b01111111);
 336:	85 b1       	in	r24, 0x05	; 5
 338:	80 78       	andi	r24, 0x80	; 128
 33a:	85 b9       	out	0x05, r24	; 5
 33c:	08 95       	ret

0000033e <setDisplay>:
	//PORTB &= ~(1<<PB6)&~(1<<PB5)&~(1<<PB4)&~(1<<PB3)&~(1<<PB2)&~(1<<PB1)&~(1<<PB0);  //Todos los bits de esos puertos a 0
}

inline void setDisplay(int numero){
 33e:	cf 93       	push	r28
 340:	df 93       	push	r29
 342:	ec 01       	movw	r28, r24
	//Primero hago un lienzo, en el que pongo los displays apagados durante el ciclo de reloj para después poder poner el numero al gusto
	apagarDisplay();
 344:	0e 94 9b 01 	call	0x336	; 0x336 <apagarDisplay>
	//PORTB = 0bX0000000
	switch(numero)
 348:	ca 30       	cpi	r28, 0x0A	; 10
 34a:	d1 05       	cpc	r29, r1
 34c:	d8 f4       	brcc	.+54     	; 0x384 <setDisplay+0x46>
 34e:	fe 01       	movw	r30, r28
 350:	ee 58       	subi	r30, 0x8E	; 142
 352:	ff 4f       	sbci	r31, 0xFF	; 255
		break;
		case 8: //0b01111111;
		DSPORT |= (1<<DaX)|(1<<DbX)|(1<<DcX)|(1<<DdX)|(1<<DeX)|(1<<DfX)|(1<<DgX);
		break;
		case 9: //0b01101111;
		DSPORT |= (1<<DaX)|(1<<DbX)|(1<<DcX)|(1<<DfX)|(1<<DgX);
 354:	85 b1       	in	r24, 0x05	; 5

inline void setDisplay(int numero){
	//Primero hago un lienzo, en el que pongo los displays apagados durante el ciclo de reloj para después poder poner el numero al gusto
	apagarDisplay();
	//PORTB = 0bX0000000
	switch(numero)
 356:	0c 94 e7 05 	jmp	0xbce	; 0xbce <__tablejump2__>
	{
		case 0:	//0b00111111;
		DSPORT |= (1<<DaX)|(1<<DbX)|(1<<DcX)|(1<<DdX)|(1<<DeX)|(1<<DfX);
 35a:	8f 63       	ori	r24, 0x3F	; 63
 35c:	11 c0       	rjmp	.+34     	; 0x380 <setDisplay+0x42>
		break;
		case 1:	//0b00000110;
		DSPORT |= (1<<DbX)|(1<<DcX);
 35e:	86 60       	ori	r24, 0x06	; 6
 360:	0f c0       	rjmp	.+30     	; 0x380 <setDisplay+0x42>
		break;
		case 2: //0b01011011;
		DSPORT |= (1<<DaX)|(1<<DbX)|(1<<DdX)|(1<<DeX)|(1<<DgX);
 362:	8b 65       	ori	r24, 0x5B	; 91
 364:	0d c0       	rjmp	.+26     	; 0x380 <setDisplay+0x42>
		break;
		case 3: //0b01001111;
		DSPORT |= (1<<DgX)|(1<<DdX)|(1<<DcX)|(1<<DbX)|(1<<DaX);
 366:	8f 64       	ori	r24, 0x4F	; 79
 368:	0b c0       	rjmp	.+22     	; 0x380 <setDisplay+0x42>
		break;
		case 4: //0b01100110;
		DSPORT |= (1<<DbX)|(1<<DcX)|(1<<DfX)|(1<<DgX);
 36a:	86 66       	ori	r24, 0x66	; 102
 36c:	09 c0       	rjmp	.+18     	; 0x380 <setDisplay+0x42>
		break;
		case 5: //0b01101101;
		DSPORT |= (1<<DaX)|(1<<DcX)|(1<<DdX)|(1<<DfX)|(1<<DgX);
 36e:	8d 66       	ori	r24, 0x6D	; 109
 370:	07 c0       	rjmp	.+14     	; 0x380 <setDisplay+0x42>
		break;
		case 6: //0b01111101;
		DSPORT |= (1<<DaX)|(1<<DfX)|(1<<DcX)|(1<<DdX)|(1<<DeX)|(1<<DgX);
 372:	8d 67       	ori	r24, 0x7D	; 125
 374:	05 c0       	rjmp	.+10     	; 0x380 <setDisplay+0x42>
		break;
		case 7: //0b00000111;
		DSPORT |= (1<<DaX)|(1<<DbX)|(1<<DcX);
 376:	87 60       	ori	r24, 0x07	; 7
 378:	03 c0       	rjmp	.+6      	; 0x380 <setDisplay+0x42>
		break;
		case 8: //0b01111111;
		DSPORT |= (1<<DaX)|(1<<DbX)|(1<<DcX)|(1<<DdX)|(1<<DeX)|(1<<DfX)|(1<<DgX);
 37a:	8f 67       	ori	r24, 0x7F	; 127
 37c:	01 c0       	rjmp	.+2      	; 0x380 <setDisplay+0x42>
		break;
		case 9: //0b01101111;
		DSPORT |= (1<<DaX)|(1<<DbX)|(1<<DcX)|(1<<DfX)|(1<<DgX);
 37e:	87 66       	ori	r24, 0x67	; 103
 380:	85 b9       	out	0x05, r24	; 5
		break;
 382:	01 c0       	rjmp	.+2      	; 0x386 <setDisplay+0x48>
		default:
		DSPORT |= (1<<DgX);
 384:	2e 9a       	sbi	0x05, 6	; 5
	}
}
 386:	df 91       	pop	r29
 388:	cf 91       	pop	r28
 38a:	08 95       	ret

0000038c <DisplayUpdater>:

inline void DisplayUpdater(){		//Se llama cada 5ms con el timer0
	if(finalizadoFlag == 1){
 38c:	80 91 04 02 	lds	r24, 0x0204	; 0x800204 <__data_end>
 390:	81 30       	cpi	r24, 0x01	; 1
 392:	21 f5       	brne	.+72     	; 0x3dc <DisplayUpdater+0x50>
		parpadeos++;
 394:	80 91 05 02 	lds	r24, 0x0205	; 0x800205 <parpadeos>
 398:	90 91 06 02 	lds	r25, 0x0206	; 0x800206 <parpadeos+0x1>
 39c:	01 96       	adiw	r24, 0x01	; 1
 39e:	90 93 06 02 	sts	0x0206, r25	; 0x800206 <parpadeos+0x1>
 3a2:	80 93 05 02 	sts	0x0205, r24	; 0x800205 <parpadeos>
		if(parpadeos <= 180){
 3a6:	80 91 05 02 	lds	r24, 0x0205	; 0x800205 <parpadeos>
 3aa:	90 91 06 02 	lds	r25, 0x0206	; 0x800206 <parpadeos+0x1>
 3ae:	85 3b       	cpi	r24, 0xB5	; 181
 3b0:	91 05       	cpc	r25, r1
 3b2:	a0 f0       	brcs	.+40     	; 0x3dc <DisplayUpdater+0x50>
			}
			else{								//Si esta seleccionado Display 0, unidades
				setDisplay(puntuacion%10);
			}
		}
		else if(parpadeos >= 180){
 3b4:	80 91 05 02 	lds	r24, 0x0205	; 0x800205 <parpadeos>
 3b8:	90 91 06 02 	lds	r25, 0x0206	; 0x800206 <parpadeos+0x1>
 3bc:	84 3b       	cpi	r24, 0xB4	; 180
 3be:	91 05       	cpc	r25, r1
 3c0:	08 f1       	brcs	.+66     	; 0x404 <__LOCK_REGION_LENGTH__+0x4>
			DSPORT = 0x00;  // Apagados y DS da igual porque al estar apagados da igual a que display este apuntando
 3c2:	15 b8       	out	0x05, r1	; 5
			if(parpadeos == 200){
 3c4:	80 91 05 02 	lds	r24, 0x0205	; 0x800205 <parpadeos>
 3c8:	90 91 06 02 	lds	r25, 0x0206	; 0x800206 <parpadeos+0x1>
 3cc:	88 3c       	cpi	r24, 0xC8	; 200
 3ce:	91 05       	cpc	r25, r1
 3d0:	c9 f4       	brne	.+50     	; 0x404 <__LOCK_REGION_LENGTH__+0x4>
				parpadeos = 0; // Reiniciar el contador de parpadeos
 3d2:	10 92 06 02 	sts	0x0206, r1	; 0x800206 <parpadeos+0x1>
 3d6:	10 92 05 02 	sts	0x0205, r1	; 0x800205 <parpadeos>
 3da:	08 95       	ret
			}
		}
	}
	else{
		//Preguntar Jorge pero creo que PORT7B no vale, tiene que ser PORTXi --> PXi para los puertos de E/S. No lo que pone en el datasheet, para este caso.
		toggleBit(DSPORT,DSX);					//Máscara en el bit de seleccion para alternarlo cada 5 ms, es decir un refresco de 200 veces/segundo
 3dc:	85 b1       	in	r24, 0x05	; 5
 3de:	80 58       	subi	r24, 0x80	; 128
 3e0:	85 b9       	out	0x05, r24	; 5
		//Posible bandera 'Selector
		
		if(~PINB & (1 << DSX)){				//Si está seleccionado Display 1, decenas
 3e2:	1f 99       	sbic	0x03, 7	; 3
 3e4:	06 c0       	rjmp	.+12     	; 0x3f2 <DisplayUpdater+0x66>
			setDisplay(puntuacion/10);
 3e6:	80 91 14 02 	lds	r24, 0x0214	; 0x800214 <puntuacion>
 3ea:	6a e0       	ldi	r22, 0x0A	; 10
 3ec:	0e 94 b9 05 	call	0xb72	; 0xb72 <__udivmodqi4>
 3f0:	06 c0       	rjmp	.+12     	; 0x3fe <DisplayUpdater+0x72>
		}
		else{								//Si esta seleccionado Display 0, unidades
			setDisplay(puntuacion%10);
 3f2:	80 91 14 02 	lds	r24, 0x0214	; 0x800214 <puntuacion>
 3f6:	6a e0       	ldi	r22, 0x0A	; 10
 3f8:	0e 94 b9 05 	call	0xb72	; 0xb72 <__udivmodqi4>
 3fc:	89 2f       	mov	r24, r25
 3fe:	90 e0       	ldi	r25, 0x00	; 0
 400:	0c 94 9f 01 	jmp	0x33e	; 0x33e <setDisplay>
 404:	08 95       	ret

00000406 <setupEC>:


//SET UP//

void setupEC(){
	setBit(M1_diDDR,M1_di_X);			//M1_di como salida.
 406:	e7 e0       	ldi	r30, 0x07	; 7
 408:	f1 e0       	ldi	r31, 0x01	; 1
 40a:	80 81       	ld	r24, Z
 40c:	80 64       	ori	r24, 0x40	; 64
 40e:	80 83       	st	Z, r24
	setBit(M1_enDDR,M1_en_X);			//M1_en como salida.
 410:	ea e0       	ldi	r30, 0x0A	; 10
 412:	f1 e0       	ldi	r31, 0x01	; 1
 414:	80 81       	ld	r24, Z
 416:	81 60       	ori	r24, 0x01	; 1
 418:	80 83       	st	Z, r24
	clearBit(SW1DDR,SW1X);				//SW1 como entrada.
 41a:	56 98       	cbi	0x0a, 6	; 10
	clearBit(M1_enPORT,M1_en_X);		//M1_enable off.
 41c:	eb e0       	ldi	r30, 0x0B	; 11
 41e:	f1 e0       	ldi	r31, 0x01	; 1
 420:	80 81       	ld	r24, Z
 422:	8e 7f       	andi	r24, 0xFE	; 254
 424:	80 83       	st	Z, r24
 426:	08 95       	ret

00000428 <setupER>:
}

void setupER(){
	setBit(M5_diDDR,M5_di_X);			//M5_di como salida.
 428:	55 9a       	sbi	0x0a, 5	; 10
	setBit(M5_enDDR,M5_en_X);			//M5_en como salida.
 42a:	57 9a       	sbi	0x0a, 7	; 10
	clearBit(M5_enPORT,M5_en_X);		//M5_enable off.
 42c:	5f 98       	cbi	0x0b, 7	; 11
 42e:	08 95       	ret

00000430 <setupElevadores>:
}

void setupElevadores(){  //Realizamos todo el setup.
	cli();
 430:	f8 94       	cli
	setupEC();
 432:	0e 94 03 02 	call	0x406	; 0x406 <setupEC>
	setupER();
 436:	0e 94 14 02 	call	0x428	; 0x428 <setupER>
	sei();
 43a:	78 94       	sei
 43c:	08 95       	ret

0000043e <homeEC>:
}

//FUNCIONES HOME

void homeEC(){							//Lleva el EC a su posición inicial (arriba).
	clearBit(M1_enPORT,M1_en_X);		//M1_enable off.
 43e:	eb e0       	ldi	r30, 0x0B	; 11
 440:	f1 e0       	ldi	r31, 0x01	; 1
 442:	80 81       	ld	r24, Z
 444:	8e 7f       	andi	r24, 0xFE	; 254
 446:	80 83       	st	Z, r24
	setBit(M1_diPORT,M1_di_X);			//Dirección ascendente (1).
 448:	a8 e0       	ldi	r26, 0x08	; 8
 44a:	b1 e0       	ldi	r27, 0x01	; 1
 44c:	8c 91       	ld	r24, X
 44e:	80 64       	ori	r24, 0x40	; 64
 450:	8c 93       	st	X, r24
	setBit(M1_enPORT,M1_en_X);			//M1_enable on.
 452:	80 81       	ld	r24, Z
 454:	81 60       	ori	r24, 0x01	; 1
 456:	80 83       	st	Z, r24
	#else
		//round up by default
		__ticks_dc = (uint32_t)(ceil(fabs(__tmp)));
	#endif

	__builtin_avr_delay_cycles(__ticks_dc);
 458:	2f ef       	ldi	r18, 0xFF	; 255
 45a:	83 ed       	ldi	r24, 0xD3	; 211
 45c:	90 e3       	ldi	r25, 0x30	; 48
 45e:	21 50       	subi	r18, 0x01	; 1
 460:	80 40       	sbci	r24, 0x00	; 0
 462:	90 40       	sbci	r25, 0x00	; 0
 464:	e1 f7       	brne	.-8      	; 0x45e <homeEC+0x20>
 466:	00 c0       	rjmp	.+0      	; 0x468 <homeEC+0x2a>
 468:	00 00       	nop
	_delay_ms(2000);					//Esperamos para asegurar que sube. 
	clearBit(M1_enPORT,M1_en_X);		//M1_enable off.
 46a:	80 81       	ld	r24, Z
 46c:	8e 7f       	andi	r24, 0xFE	; 254
 46e:	80 83       	st	Z, r24
	ECPos=1;							//EC está arriba.
 470:	81 e0       	ldi	r24, 0x01	; 1
 472:	80 93 17 02 	sts	0x0217, r24	; 0x800217 <ECPos>
 476:	08 95       	ret

00000478 <homeER>:
}

void homeER(){							//Lleva el ER a su posición inicial (abajo).
	clearBit(M5_enPORT,M5_en_X);		//M5_enable off.
 478:	5f 98       	cbi	0x0b, 7	; 11
	clearBit(M5_diPORT,M5_di_X);		//Dirección descendente (0);
 47a:	5d 98       	cbi	0x0b, 5	; 11
	setBit(M5_enPORT,M5_en_X);			//M5_enable on.
 47c:	5f 9a       	sbi	0x0b, 7	; 11
 47e:	08 95       	ret

00000480 <bajaEC>:


//FUNCIONES EC//

inline void bajaEC(){									//Bajamos el EC y bloqueamos el programa hasta que llegue a abajo.
	clearBit(M1_enPORT,M1_en_X);				//M5_enable off.
 480:	80 91 0b 01 	lds	r24, 0x010B	; 0x80010b <__TEXT_REGION_LENGTH__+0x7f010b>
 484:	8e 7f       	andi	r24, 0xFE	; 254
 486:	80 93 0b 01 	sts	0x010B, r24	; 0x80010b <__TEXT_REGION_LENGTH__+0x7f010b>
		if(ECPos==1){							//Solo se ejecuta si el EC está arriba.
 48a:	80 91 17 02 	lds	r24, 0x0217	; 0x800217 <ECPos>
 48e:	81 30       	cpi	r24, 0x01	; 1
 490:	a9 f4       	brne	.+42     	; 0x4bc <bajaEC+0x3c>
			clearBit(M1_diPORT,M1_di_X);		//Dirección descendente (0);
 492:	80 91 08 01 	lds	r24, 0x0108	; 0x800108 <__TEXT_REGION_LENGTH__+0x7f0108>
 496:	8f 7b       	andi	r24, 0xBF	; 191
 498:	80 93 08 01 	sts	0x0108, r24	; 0x800108 <__TEXT_REGION_LENGTH__+0x7f0108>
			setBit(M1_enPORT,M1_en_X);			//M1_enable on.
 49c:	80 91 0b 01 	lds	r24, 0x010B	; 0x80010b <__TEXT_REGION_LENGTH__+0x7f010b>
 4a0:	81 60       	ori	r24, 0x01	; 1
 4a2:	80 93 0b 01 	sts	0x010B, r24	; 0x80010b <__TEXT_REGION_LENGTH__+0x7f010b>
			while((PIND & 0x40)==0){};			//Esperamos a que suelte el SW1.(Probar con while((PIND & 0x40)==0){} )
 4a6:	4e 9b       	sbis	0x09, 6	; 9
 4a8:	fe cf       	rjmp	.-4      	; 0x4a6 <bajaEC+0x26>
			while((PIND & 0x40)!=0){};			//Esperamos a que vuelva a pulsar SW1.
 4aa:	4e 99       	sbic	0x09, 6	; 9
 4ac:	fe cf       	rjmp	.-4      	; 0x4aa <bajaEC+0x2a>
			clearBit(M1_enPORT,M1_en_X);		//M1_enable off.
 4ae:	80 91 0b 01 	lds	r24, 0x010B	; 0x80010b <__TEXT_REGION_LENGTH__+0x7f010b>
 4b2:	8e 7f       	andi	r24, 0xFE	; 254
 4b4:	80 93 0b 01 	sts	0x010B, r24	; 0x80010b <__TEXT_REGION_LENGTH__+0x7f010b>
			ECPos=0;							//EC está abajo.
 4b8:	10 92 17 02 	sts	0x0217, r1	; 0x800217 <ECPos>
 4bc:	08 95       	ret

000004be <subeEC>:
		}
}
inline void subeEC(){									//Subimos el EC y bloqueamos el programa hasta que llegue arriba.
	clearBit(M1_enPORT,M1_en_X);				//M5_enable off.
 4be:	80 91 0b 01 	lds	r24, 0x010B	; 0x80010b <__TEXT_REGION_LENGTH__+0x7f010b>
 4c2:	8e 7f       	andi	r24, 0xFE	; 254
 4c4:	80 93 0b 01 	sts	0x010B, r24	; 0x80010b <__TEXT_REGION_LENGTH__+0x7f010b>
		if(ECPos==0){							//Solo se ejecuta si el EC está abajo.
 4c8:	80 91 17 02 	lds	r24, 0x0217	; 0x800217 <ECPos>
 4cc:	81 11       	cpse	r24, r1
 4ce:	16 c0       	rjmp	.+44     	; 0x4fc <subeEC+0x3e>
			setBit(M1_diPORT,M1_di_X);			//Dirección ascendente (1);
 4d0:	80 91 08 01 	lds	r24, 0x0108	; 0x800108 <__TEXT_REGION_LENGTH__+0x7f0108>
 4d4:	80 64       	ori	r24, 0x40	; 64
 4d6:	80 93 08 01 	sts	0x0108, r24	; 0x800108 <__TEXT_REGION_LENGTH__+0x7f0108>
			setBit(M1_enPORT,M1_en_X);			//M1_enable on.
 4da:	80 91 0b 01 	lds	r24, 0x010B	; 0x80010b <__TEXT_REGION_LENGTH__+0x7f010b>
 4de:	81 60       	ori	r24, 0x01	; 1
 4e0:	80 93 0b 01 	sts	0x010B, r24	; 0x80010b <__TEXT_REGION_LENGTH__+0x7f010b>
			while((PIND & 0x40)==0){};			//Esperamos a que suelte el SW1.(Probar con while((PIND & 0x40)==0){} )
 4e4:	4e 9b       	sbis	0x09, 6	; 9
 4e6:	fe cf       	rjmp	.-4      	; 0x4e4 <subeEC+0x26>
			while((PIND & 0x40)!=0){};			//Esperamos a que vuelva a pulsar SW1.
 4e8:	4e 99       	sbic	0x09, 6	; 9
 4ea:	fe cf       	rjmp	.-4      	; 0x4e8 <subeEC+0x2a>
			clearBit(M1_enPORT,M1_en_X);		//M1_enable off.
 4ec:	80 91 0b 01 	lds	r24, 0x010B	; 0x80010b <__TEXT_REGION_LENGTH__+0x7f010b>
 4f0:	8e 7f       	andi	r24, 0xFE	; 254
 4f2:	80 93 0b 01 	sts	0x010B, r24	; 0x80010b <__TEXT_REGION_LENGTH__+0x7f010b>
			ECPos=1;							//EC está arriba.
 4f6:	81 e0       	ldi	r24, 0x01	; 1
 4f8:	80 93 17 02 	sts	0x0217, r24	; 0x800217 <ECPos>
 4fc:	08 95       	ret

000004fe <bajaER>:
//FUNCIONES ER//


inline void bajaER(){
	//if(ERpos==1){								//Bajamos el ER sin bloquear el programa.
		clearBit(M5_enPORT,M5_en_X);			//M5_enable off.
 4fe:	5f 98       	cbi	0x0b, 7	; 11
		clearBit(M5_diPORT,M5_di_X);			//Dirección descendente (0).
 500:	5d 98       	cbi	0x0b, 5	; 11
		setBit(M5_enPORT,M5_en_X);				//M5_enable on.
 502:	5f 9a       	sbi	0x0b, 7	; 11
 504:	08 95       	ret

00000506 <subeER>:
}


inline void subeER(){
	//if(ERpos==0){								//Subimos el ER sin bloquear el programa.
		clearBit(M5_enPORT,M5_en_X);			//M5_enable off.
 506:	5f 98       	cbi	0x0b, 7	; 11
		setBit(M5_diPORT,M5_di_X);				//Dirección ascendente	(1);
 508:	5d 9a       	sbi	0x0b, 5	; 11
		setBit(M5_enPORT,M5_en_X);				//M5_enable on.
 50a:	5f 9a       	sbi	0x0b, 7	; 11
 50c:	08 95       	ret

0000050e <setupLanzador>:
	ms_elapsed = time;
}
// getter para el valor del tiempo actual
inline uint32_t getTime(){
	return ms_elapsed;
}
 50e:	f8 94       	cli
 510:	e8 9a       	sbi	0x1d, 0	; 29
 512:	e9 e6       	ldi	r30, 0x69	; 105
 514:	f0 e0       	ldi	r31, 0x00	; 0
 516:	80 81       	ld	r24, Z
 518:	82 60       	ori	r24, 0x02	; 2
 51a:	80 83       	st	Z, r24
 51c:	ea 9a       	sbi	0x1d, 2	; 29
 51e:	80 81       	ld	r24, Z
 520:	80 62       	ori	r24, 0x20	; 32
 522:	80 83       	st	Z, r24
 524:	50 98       	cbi	0x0a, 0	; 10
 526:	51 98       	cbi	0x0a, 1	; 10
 528:	54 98       	cbi	0x0a, 4	; 10
 52a:	53 98       	cbi	0x0a, 3	; 10
 52c:	e7 e0       	ldi	r30, 0x07	; 7
 52e:	f1 e0       	ldi	r31, 0x01	; 1
 530:	80 81       	ld	r24, Z
 532:	80 64       	ori	r24, 0x40	; 64
 534:	80 83       	st	Z, r24
 536:	80 81       	ld	r24, Z
 538:	80 68       	ori	r24, 0x80	; 128
 53a:	80 83       	st	Z, r24
 53c:	ea e0       	ldi	r30, 0x0A	; 10
 53e:	f1 e0       	ldi	r31, 0x01	; 1
 540:	80 81       	ld	r24, Z
 542:	84 60       	ori	r24, 0x04	; 4
 544:	80 83       	st	Z, r24
 546:	80 81       	ld	r24, Z
 548:	80 62       	ori	r24, 0x20	; 32
 54a:	80 83       	st	Z, r24
 54c:	55 9a       	sbi	0x0a, 5	; 10
 54e:	80 81       	ld	r24, Z
 550:	81 60       	ori	r24, 0x01	; 1
 552:	80 83       	st	Z, r24
 554:	80 81       	ld	r24, Z
 556:	82 60       	ori	r24, 0x02	; 2
 558:	80 83       	st	Z, r24
 55a:	80 81       	ld	r24, Z
 55c:	80 61       	ori	r24, 0x10	; 16
 55e:	80 83       	st	Z, r24
 560:	80 81       	ld	r24, Z
 562:	80 68       	ori	r24, 0x80	; 128
 564:	80 83       	st	Z, r24
 566:	57 9a       	sbi	0x0a, 7	; 10
 568:	80 81       	ld	r24, Z
 56a:	88 60       	ori	r24, 0x08	; 8
 56c:	80 83       	st	Z, r24
 56e:	78 94       	sei
 570:	08 95       	ret

00000572 <lanzadorHome>:
 572:	80 e0       	ldi	r24, 0x00	; 0
 574:	90 e0       	ldi	r25, 0x00	; 0
 576:	0e 94 af 00 	call	0x15e	; 0x15e <girarLanzador>
 57a:	2f ef       	ldi	r18, 0xFF	; 255
 57c:	89 e6       	ldi	r24, 0x69	; 105
 57e:	98 e1       	ldi	r25, 0x18	; 24
 580:	21 50       	subi	r18, 0x01	; 1
 582:	80 40       	sbci	r24, 0x00	; 0
 584:	90 40       	sbci	r25, 0x00	; 0
 586:	e1 f7       	brne	.-8      	; 0x580 <lanzadorHome+0xe>
 588:	00 c0       	rjmp	.+0      	; 0x58a <lanzadorHome+0x18>
 58a:	00 00       	nop
 58c:	0e 94 db 00 	call	0x1b6	; 0x1b6 <pararLanzador>
 590:	10 92 01 02 	sts	0x0201, r1	; 0x800201 <position>
 594:	08 95       	ret

00000596 <vastagoHome>:
 596:	0e 94 f5 00 	call	0x1ea	; 0x1ea <moverVastagoAtras>
 59a:	2f ef       	ldi	r18, 0xFF	; 255
 59c:	81 ee       	ldi	r24, 0xE1	; 225
 59e:	94 e0       	ldi	r25, 0x04	; 4
 5a0:	21 50       	subi	r18, 0x01	; 1
 5a2:	80 40       	sbci	r24, 0x00	; 0
 5a4:	90 40       	sbci	r25, 0x00	; 0
 5a6:	e1 f7       	brne	.-8      	; 0x5a0 <vastagoHome+0xa>
 5a8:	00 c0       	rjmp	.+0      	; 0x5aa <vastagoHome+0x14>
 5aa:	00 00       	nop
 5ac:	49 99       	sbic	0x09, 1	; 9
 5ae:	fe cf       	rjmp	.-4      	; 0x5ac <vastagoHome+0x16>
 5b0:	0c 94 e4 00 	jmp	0x1c8	; 0x1c8 <pararVastago>

000005b4 <carritoHome>:
 5b4:	0e 94 11 01 	call	0x222	; 0x222 <liberarCarrito>
 5b8:	2f ef       	ldi	r18, 0xFF	; 255
 5ba:	81 ee       	ldi	r24, 0xE1	; 225
 5bc:	94 e0       	ldi	r25, 0x04	; 4
 5be:	21 50       	subi	r18, 0x01	; 1
 5c0:	80 40       	sbci	r24, 0x00	; 0
 5c2:	90 40       	sbci	r25, 0x00	; 0
 5c4:	e1 f7       	brne	.-8      	; 0x5be <carritoHome+0xa>
 5c6:	00 c0       	rjmp	.+0      	; 0x5c8 <carritoHome+0x14>
 5c8:	00 00       	nop
 5ca:	4c 99       	sbic	0x09, 4	; 9
 5cc:	fe cf       	rjmp	.-4      	; 0x5ca <carritoHome+0x16>
 5ce:	0c 94 00 01 	jmp	0x200	; 0x200 <pararCarrito>

000005d2 <updateTime>:
 5d2:	80 91 0c 02 	lds	r24, 0x020C	; 0x80020c <ms_elapsed>
 5d6:	90 91 0d 02 	lds	r25, 0x020D	; 0x80020d <ms_elapsed+0x1>
 5da:	a0 91 0e 02 	lds	r26, 0x020E	; 0x80020e <ms_elapsed+0x2>
 5de:	b0 91 0f 02 	lds	r27, 0x020F	; 0x80020f <ms_elapsed+0x3>
 5e2:	05 96       	adiw	r24, 0x05	; 5
 5e4:	a1 1d       	adc	r26, r1
 5e6:	b1 1d       	adc	r27, r1
 5e8:	80 93 0c 02 	sts	0x020C, r24	; 0x80020c <ms_elapsed>
 5ec:	90 93 0d 02 	sts	0x020D, r25	; 0x80020d <ms_elapsed+0x1>
 5f0:	a0 93 0e 02 	sts	0x020E, r26	; 0x80020e <ms_elapsed+0x2>
 5f4:	b0 93 0f 02 	sts	0x020F, r27	; 0x80020f <ms_elapsed+0x3>
 5f8:	80 91 0c 02 	lds	r24, 0x020C	; 0x80020c <ms_elapsed>
 5fc:	90 91 0d 02 	lds	r25, 0x020D	; 0x80020d <ms_elapsed+0x1>
 600:	a0 91 0e 02 	lds	r26, 0x020E	; 0x80020e <ms_elapsed+0x2>
 604:	b0 91 0f 02 	lds	r27, 0x020F	; 0x80020f <ms_elapsed+0x3>
 608:	40 91 08 02 	lds	r20, 0x0208	; 0x800208 <last_interruption_time>
 60c:	50 91 09 02 	lds	r21, 0x0209	; 0x800209 <last_interruption_time+0x1>
 610:	60 91 0a 02 	lds	r22, 0x020A	; 0x80020a <last_interruption_time+0x2>
 614:	70 91 0b 02 	lds	r23, 0x020B	; 0x80020b <last_interruption_time+0x3>
 618:	84 1b       	sub	r24, r20
 61a:	95 0b       	sbc	r25, r21
 61c:	a6 0b       	sbc	r26, r22
 61e:	b7 0b       	sbc	r27, r23
 620:	84 3f       	cpi	r24, 0xF4	; 244
 622:	91 40       	sbci	r25, 0x01	; 1
 624:	a1 05       	cpc	r26, r1
 626:	b1 05       	cpc	r27, r1
 628:	18 f4       	brcc	.+6      	; 0x630 <updateTime+0x5e>
 62a:	f8 94       	cli
 62c:	e8 98       	cbi	0x1d, 0	; 29
 62e:	02 c0       	rjmp	.+4      	; 0x634 <updateTime+0x62>
 630:	f8 94       	cli
 632:	e8 9a       	sbi	0x1d, 0	; 29
 634:	78 94       	sei
 636:	08 95       	ret

00000638 <parpadearLED>:


// funcion que, si esta llamada, actualiza el estado de la led, para que esta parpadeando
// llamar la funcion mediante interrupciones temporales (resolucion <50ms)
inline void parpadearLED(){
	if(ms_elapsed % 200 <= 100){
 638:	60 91 0c 02 	lds	r22, 0x020C	; 0x80020c <ms_elapsed>
 63c:	70 91 0d 02 	lds	r23, 0x020D	; 0x80020d <ms_elapsed+0x1>
 640:	80 91 0e 02 	lds	r24, 0x020E	; 0x80020e <ms_elapsed+0x2>
 644:	90 91 0f 02 	lds	r25, 0x020F	; 0x80020f <ms_elapsed+0x3>
 648:	28 ec       	ldi	r18, 0xC8	; 200
 64a:	30 e0       	ldi	r19, 0x00	; 0
 64c:	40 e0       	ldi	r20, 0x00	; 0
 64e:	50 e0       	ldi	r21, 0x00	; 0
 650:	0e 94 c5 05 	call	0xb8a	; 0xb8a <__udivmodsi4>
 654:	65 36       	cpi	r22, 0x65	; 101
 656:	71 05       	cpc	r23, r1
 658:	81 05       	cpc	r24, r1
 65a:	91 05       	cpc	r25, r1
 65c:	10 f4       	brcc	.+4      	; 0x662 <parpadearLED+0x2a>
		apagarLED();
 65e:	0c 94 2c 01 	jmp	0x258	; 0x258 <apagarLED>
	}
	else{
		encenderLED();
 662:	0c 94 26 01 	jmp	0x24c	; 0x24c <encenderLED>

00000666 <OnSW2Interruption>:
// interrupcion para el boton de disparo
// incluye proteccion, se atiende solo cuando estamos en LANZAMIENTO


inline void OnSW2Interruption(){
	if(ms_elapsed-last_interruption_time>doublePressbuffer){  // doble chequeo, pero no es necesaio
 666:	80 91 0c 02 	lds	r24, 0x020C	; 0x80020c <ms_elapsed>
 66a:	90 91 0d 02 	lds	r25, 0x020D	; 0x80020d <ms_elapsed+0x1>
 66e:	a0 91 0e 02 	lds	r26, 0x020E	; 0x80020e <ms_elapsed+0x2>
 672:	b0 91 0f 02 	lds	r27, 0x020F	; 0x80020f <ms_elapsed+0x3>
 676:	40 91 08 02 	lds	r20, 0x0208	; 0x800208 <last_interruption_time>
 67a:	50 91 09 02 	lds	r21, 0x0209	; 0x800209 <last_interruption_time+0x1>
 67e:	60 91 0a 02 	lds	r22, 0x020A	; 0x80020a <last_interruption_time+0x2>
 682:	70 91 0b 02 	lds	r23, 0x020B	; 0x80020b <last_interruption_time+0x3>
 686:	84 1b       	sub	r24, r20
 688:	95 0b       	sbc	r25, r21
 68a:	a6 0b       	sbc	r26, r22
 68c:	b7 0b       	sbc	r27, r23
 68e:	85 3f       	cpi	r24, 0xF5	; 245
 690:	91 40       	sbci	r25, 0x01	; 1
 692:	a1 05       	cpc	r26, r1
 694:	b1 05       	cpc	r27, r1
 696:	68 f1       	brcs	.+90     	; 0x6f2 <OnSW2Interruption+0x8c>
		if(lanzadorFlag==1){
 698:	80 91 00 02 	lds	r24, 0x0200	; 0x800200 <__DATA_REGION_ORIGIN__>
 69c:	81 30       	cpi	r24, 0x01	; 1
 69e:	99 f4       	brne	.+38     	; 0x6c6 <OnSW2Interruption+0x60>
			last_interruption_time = ms_elapsed;
 6a0:	80 91 0c 02 	lds	r24, 0x020C	; 0x80020c <ms_elapsed>
 6a4:	90 91 0d 02 	lds	r25, 0x020D	; 0x80020d <ms_elapsed+0x1>
 6a8:	a0 91 0e 02 	lds	r26, 0x020E	; 0x80020e <ms_elapsed+0x2>
 6ac:	b0 91 0f 02 	lds	r27, 0x020F	; 0x80020f <ms_elapsed+0x3>
 6b0:	80 93 08 02 	sts	0x0208, r24	; 0x800208 <last_interruption_time>
 6b4:	90 93 09 02 	sts	0x0209, r25	; 0x800209 <last_interruption_time+0x1>
 6b8:	a0 93 0a 02 	sts	0x020A, r26	; 0x80020a <last_interruption_time+0x2>
 6bc:	b0 93 0b 02 	sts	0x020B, r27	; 0x80020b <last_interruption_time+0x3>
			girarLanzador(0);
 6c0:	80 e0       	ldi	r24, 0x00	; 0
 6c2:	90 e0       	ldi	r25, 0x00	; 0
 6c4:	14 c0       	rjmp	.+40     	; 0x6ee <OnSW2Interruption+0x88>
		}
		else if(lanzadorFlag==0){
 6c6:	81 11       	cpse	r24, r1
 6c8:	14 c0       	rjmp	.+40     	; 0x6f2 <OnSW2Interruption+0x8c>
			last_interruption_time = ms_elapsed;
 6ca:	80 91 0c 02 	lds	r24, 0x020C	; 0x80020c <ms_elapsed>
 6ce:	90 91 0d 02 	lds	r25, 0x020D	; 0x80020d <ms_elapsed+0x1>
 6d2:	a0 91 0e 02 	lds	r26, 0x020E	; 0x80020e <ms_elapsed+0x2>
 6d6:	b0 91 0f 02 	lds	r27, 0x020F	; 0x80020f <ms_elapsed+0x3>
 6da:	80 93 08 02 	sts	0x0208, r24	; 0x800208 <last_interruption_time>
 6de:	90 93 09 02 	sts	0x0209, r25	; 0x800209 <last_interruption_time+0x1>
 6e2:	a0 93 0a 02 	sts	0x020A, r26	; 0x80020a <last_interruption_time+0x2>
 6e6:	b0 93 0b 02 	sts	0x020B, r27	; 0x80020b <last_interruption_time+0x3>
			girarLanzador(1);
 6ea:	81 e0       	ldi	r24, 0x01	; 1
 6ec:	90 e0       	ldi	r25, 0x00	; 0
 6ee:	0c 94 af 00 	jmp	0x15e	; 0x15e <girarLanzador>
 6f2:	08 95       	ret

000006f4 <__vector_21>:
uint8_t oscillando = 0;

/************************************************************************/
// Interrupciones:

ISR(TIMER0_COMPA_vect){						//Interrupcion que ocurre cada 5ms
 6f4:	1f 92       	push	r1
 6f6:	0f 92       	push	r0
 6f8:	0f b6       	in	r0, 0x3f	; 63
 6fa:	0f 92       	push	r0
 6fc:	11 24       	eor	r1, r1
 6fe:	2f 93       	push	r18
 700:	3f 93       	push	r19
 702:	4f 93       	push	r20
 704:	5f 93       	push	r21
 706:	6f 93       	push	r22
 708:	7f 93       	push	r23
 70a:	8f 93       	push	r24
 70c:	9f 93       	push	r25
 70e:	af 93       	push	r26
 710:	bf 93       	push	r27
 712:	ef 93       	push	r30
 714:	ff 93       	push	r31
	DisplayUpdater();  // update displays with high frecuency 
 716:	0e 94 c6 01 	call	0x38c	; 0x38c <DisplayUpdater>
	updateTime();		// update Lanzadores Timer
 71a:	0e 94 e9 02 	call	0x5d2	; 0x5d2 <updateTime>
	if(parpadearFlag==1){
 71e:	80 91 13 02 	lds	r24, 0x0213	; 0x800213 <parpadearFlag>
 722:	81 30       	cpi	r24, 0x01	; 1
 724:	11 f4       	brne	.+4      	; 0x72a <__vector_21+0x36>
		parpadearLED();   // enable parpadeo if necessary
 726:	0e 94 1c 03 	call	0x638	; 0x638 <parpadearLED>
	}
}
 72a:	ff 91       	pop	r31
 72c:	ef 91       	pop	r30
 72e:	bf 91       	pop	r27
 730:	af 91       	pop	r26
 732:	9f 91       	pop	r25
 734:	8f 91       	pop	r24
 736:	7f 91       	pop	r23
 738:	6f 91       	pop	r22
 73a:	5f 91       	pop	r21
 73c:	4f 91       	pop	r20
 73e:	3f 91       	pop	r19
 740:	2f 91       	pop	r18
 742:	0f 90       	pop	r0
 744:	0f be       	out	0x3f, r0	; 63
 746:	0f 90       	pop	r0
 748:	1f 90       	pop	r1
 74a:	18 95       	reti

0000074c <__vector_17>:

ISR(TIMER1_COMPA_vect){  // cuando pasan los 30 segundos (10*3 segundos del timer 1)
 74c:	1f 92       	push	r1
 74e:	0f 92       	push	r0
 750:	0f b6       	in	r0, 0x3f	; 63
 752:	0f 92       	push	r0
 754:	11 24       	eor	r1, r1
 756:	2f 93       	push	r18
 758:	3f 93       	push	r19
 75a:	4f 93       	push	r20
 75c:	5f 93       	push	r21
 75e:	6f 93       	push	r22
 760:	7f 93       	push	r23
 762:	8f 93       	push	r24
 764:	9f 93       	push	r25
 766:	af 93       	push	r26
 768:	bf 93       	push	r27
 76a:	ef 93       	push	r30
 76c:	ff 93       	push	r31
	timerTicks++;
 76e:	80 91 11 02 	lds	r24, 0x0211	; 0x800211 <timerTicks>
 772:	8f 5f       	subi	r24, 0xFF	; 255
 774:	80 93 11 02 	sts	0x0211, r24	; 0x800211 <timerTicks>
	if(timerTicks==10){
 778:	80 91 11 02 	lds	r24, 0x0211	; 0x800211 <timerTicks>
 77c:	8a 30       	cpi	r24, 0x0A	; 10
 77e:	39 f4       	brne	.+14     	; 0x78e <__vector_17+0x42>
		ultimoFlag = 1;
 780:	81 e0       	ldi	r24, 0x01	; 1
 782:	80 93 12 02 	sts	0x0212, r24	; 0x800212 <ultimoFlag>
		disableTimer1Int();
 786:	0e 94 7b 01 	call	0x2f6	; 0x2f6 <disableTimer1Int>
		timerTicks = 0;
 78a:	10 92 11 02 	sts	0x0211, r1	; 0x800211 <timerTicks>
	}
}
 78e:	ff 91       	pop	r31
 790:	ef 91       	pop	r30
 792:	bf 91       	pop	r27
 794:	af 91       	pop	r26
 796:	9f 91       	pop	r25
 798:	8f 91       	pop	r24
 79a:	7f 91       	pop	r23
 79c:	6f 91       	pop	r22
 79e:	5f 91       	pop	r21
 7a0:	4f 91       	pop	r20
 7a2:	3f 91       	pop	r19
 7a4:	2f 91       	pop	r18
 7a6:	0f 90       	pop	r0
 7a8:	0f be       	out	0x3f, r0	; 63
 7aa:	0f 90       	pop	r0
 7ac:	1f 90       	pop	r1
 7ae:	18 95       	reti

000007b0 <__vector_11>:

ISR(PCINT2_vect){ //Cuidado que era por flanco de bajada
 7b0:	1f 92       	push	r1
 7b2:	0f 92       	push	r0
 7b4:	0f b6       	in	r0, 0x3f	; 63
 7b6:	0f 92       	push	r0
 7b8:	11 24       	eor	r1, r1
 7ba:	2f 93       	push	r18
 7bc:	3f 93       	push	r19
 7be:	4f 93       	push	r20
 7c0:	5f 93       	push	r21
 7c2:	6f 93       	push	r22
 7c4:	7f 93       	push	r23
 7c6:	8f 93       	push	r24
 7c8:	9f 93       	push	r25
 7ca:	af 93       	push	r26
 7cc:	bf 93       	push	r27
 7ce:	ef 93       	push	r30
 7d0:	ff 93       	push	r31
	OnPinChangeBolos();
 7d2:	0e 94 86 05 	call	0xb0c	; 0xb0c <OnPinChangeBolos>
}
 7d6:	ff 91       	pop	r31
 7d8:	ef 91       	pop	r30
 7da:	bf 91       	pop	r27
 7dc:	af 91       	pop	r26
 7de:	9f 91       	pop	r25
 7e0:	8f 91       	pop	r24
 7e2:	7f 91       	pop	r23
 7e4:	6f 91       	pop	r22
 7e6:	5f 91       	pop	r21
 7e8:	4f 91       	pop	r20
 7ea:	3f 91       	pop	r19
 7ec:	2f 91       	pop	r18
 7ee:	0f 90       	pop	r0
 7f0:	0f be       	out	0x3f, r0	; 63
 7f2:	0f 90       	pop	r0
 7f4:	1f 90       	pop	r1
 7f6:	18 95       	reti

000007f8 <__vector_1>:

// interrupcon del SW2 que sirva para distinguir que pulsador se ha pulsado
// solo me interesan durante el estado de LANZAMIENTO
ISR(INT0_vect){
 7f8:	1f 92       	push	r1
 7fa:	0f 92       	push	r0
 7fc:	0f b6       	in	r0, 0x3f	; 63
 7fe:	0f 92       	push	r0
 800:	11 24       	eor	r1, r1
 802:	2f 93       	push	r18
 804:	3f 93       	push	r19
 806:	4f 93       	push	r20
 808:	5f 93       	push	r21
 80a:	6f 93       	push	r22
 80c:	7f 93       	push	r23
 80e:	8f 93       	push	r24
 810:	9f 93       	push	r25
 812:	af 93       	push	r26
 814:	bf 93       	push	r27
 816:	ef 93       	push	r30
 818:	ff 93       	push	r31
	if(state==LANZAMIENTO){
 81a:	80 91 07 02 	lds	r24, 0x0207	; 0x800207 <state>
 81e:	83 30       	cpi	r24, 0x03	; 3
 820:	11 f4       	brne	.+4      	; 0x826 <__vector_1+0x2e>
		OnSW2Interruption();
 822:	0e 94 33 03 	call	0x666	; 0x666 <OnSW2Interruption>
	}
}
 826:	ff 91       	pop	r31
 828:	ef 91       	pop	r30
 82a:	bf 91       	pop	r27
 82c:	af 91       	pop	r26
 82e:	9f 91       	pop	r25
 830:	8f 91       	pop	r24
 832:	7f 91       	pop	r23
 834:	6f 91       	pop	r22
 836:	5f 91       	pop	r21
 838:	4f 91       	pop	r20
 83a:	3f 91       	pop	r19
 83c:	2f 91       	pop	r18
 83e:	0f 90       	pop	r0
 840:	0f be       	out	0x3f, r0	; 63
 842:	0f 90       	pop	r0
 844:	1f 90       	pop	r1
 846:	18 95       	reti

00000848 <__vector_3>:

ISR(INT2_vect){  // interrupcion del pulsador del disparo (SW6), maneja los cambios de estado cuando se pulsa
 848:	1f 92       	push	r1
 84a:	0f 92       	push	r0
 84c:	0f b6       	in	r0, 0x3f	; 63
 84e:	0f 92       	push	r0
 850:	11 24       	eor	r1, r1
 852:	2f 93       	push	r18
 854:	3f 93       	push	r19
 856:	4f 93       	push	r20
 858:	5f 93       	push	r21
 85a:	6f 93       	push	r22
 85c:	7f 93       	push	r23
 85e:	8f 93       	push	r24
 860:	9f 93       	push	r25
 862:	af 93       	push	r26
 864:	bf 93       	push	r27
 866:	ef 93       	push	r30
 868:	ff 93       	push	r31
	if(state == LANZAMIENTO){
 86a:	80 91 07 02 	lds	r24, 0x0207	; 0x800207 <state>
 86e:	83 30       	cpi	r24, 0x03	; 3
 870:	29 f4       	brne	.+10     	; 0x87c <__vector_3+0x34>
		habilitarInterrupcionesSensores();
 872:	0e 94 7f 05 	call	0xafe	; 0xafe <habilitarInterrupcionesSensores>
		state = TIRAR_BOLA;
 876:	84 e0       	ldi	r24, 0x04	; 4
 878:	80 93 07 02 	sts	0x0207, r24	; 0x800207 <state>
	}
	if(state == HOME){
 87c:	80 91 07 02 	lds	r24, 0x0207	; 0x800207 <state>
 880:	81 11       	cpse	r24, r1
 882:	03 c0       	rjmp	.+6      	; 0x88a <__vector_3+0x42>
		state = SIN_BOLA;
 884:	81 e0       	ldi	r24, 0x01	; 1
 886:	80 93 07 02 	sts	0x0207, r24	; 0x800207 <state>
	}
	if(state==FINAL){
 88a:	80 91 07 02 	lds	r24, 0x0207	; 0x800207 <state>
 88e:	86 30       	cpi	r24, 0x06	; 6
 890:	11 f4       	brne	.+4      	; 0x896 <__vector_3+0x4e>
		state = HOME;
 892:	10 92 07 02 	sts	0x0207, r1	; 0x800207 <state>
	}
}
 896:	ff 91       	pop	r31
 898:	ef 91       	pop	r30
 89a:	bf 91       	pop	r27
 89c:	af 91       	pop	r26
 89e:	9f 91       	pop	r25
 8a0:	8f 91       	pop	r24
 8a2:	7f 91       	pop	r23
 8a4:	6f 91       	pop	r22
 8a6:	5f 91       	pop	r21
 8a8:	4f 91       	pop	r20
 8aa:	3f 91       	pop	r19
 8ac:	2f 91       	pop	r18
 8ae:	0f 90       	pop	r0
 8b0:	0f be       	out	0x3f, r0	; 63
 8b2:	0f 90       	pop	r0
 8b4:	1f 90       	pop	r1
 8b6:	18 95       	reti

000008b8 <main>:
 8b8:	2f ef       	ldi	r18, 0xFF	; 255
 8ba:	81 ee       	ldi	r24, 0xE1	; 225
 8bc:	94 e0       	ldi	r25, 0x04	; 4
 8be:	21 50       	subi	r18, 0x01	; 1
 8c0:	80 40       	sbci	r24, 0x00	; 0
 8c2:	90 40       	sbci	r25, 0x00	; 0
 8c4:	e1 f7       	brne	.-8      	; 0x8be <main+0x6>
 8c6:	00 c0       	rjmp	.+0      	; 0x8c8 <main+0x10>
 8c8:	00 00       	nop

int main(void)
{
	// proceso de setup de todos los componentes:
	_delay_ms(200);
	setup_puertos();
 8ca:	0e 94 32 01 	call	0x264	; 0x264 <setup_puertos>
	setupLanzador();
 8ce:	0e 94 87 02 	call	0x50e	; 0x50e <setupLanzador>
	setup_timer0();
 8d2:	0e 94 a2 00 	call	0x144	; 0x144 <setup_timer0>
	setup_timer1();
 8d6:	0e 94 82 01 	call	0x304	; 0x304 <setup_timer1>
	setupElevadores();
 8da:	0e 94 18 02 	call	0x430	; 0x430 <setupElevadores>
	homeER();
 8de:	0e 94 3c 02 	call	0x478	; 0x478 <homeER>
	// bajaER();  // comprobar si es necesario
	homeEC();
 8e2:	0e 94 1f 02 	call	0x43e	; 0x43e <homeEC>
	// subeEC();  // comprobar si es necesario
	vastagoHome();
 8e6:	0e 94 cb 02 	call	0x596	; 0x596 <vastagoHome>
	carritoHome();
 8ea:	0e 94 da 02 	call	0x5b4	; 0x5b4 <carritoHome>
	lanzadorHome();  // comprobar si se puede hacer el home de manera segura (ELEVADOR)
 8ee:	0e 94 b9 02 	call	0x572	; 0x572 <lanzadorHome>
	encenderLED();
 8f2:	0e 94 26 01 	call	0x24c	; 0x24c <encenderLED>
					girarLanzador(0);  // girar hacia la izquierda
					_delay_ms(1000);  // hasta que llega a la iqzuierda
					oscillando = 1;
				}
				
				state = LANZAMIENTO; // empezar lanzamiento
 8f6:	d3 e0       	ldi	r29, 0x03	; 3
				pararVastago();
				
				if(oscillando==0){
					girarLanzador(0);  // girar hacia la izquierda
					_delay_ms(1000);  // hasta que llega a la iqzuierda
					oscillando = 1;
 8f8:	c1 e0       	ldi	r28, 0x01	; 1

				subeER();
				deshabilitarInterrupcionesSensores();  // evitar otras interrupciones de los bolos
				_delay_ms(3000);
				if(habilitarEstadoFinal==1){ // si hemos tirado la bola y ya estamos en el ultimo disparo
					state = FINAL;  // ir al estado de parpadeo
 8fa:	16 e0       	ldi	r17, 0x06	; 6
				liberarCarrito();  // tiramos la bola
				_delay_ms(button_check_delay_ms);
				loop_until_bit_is_clear(SW4PIN,SW4X);
				pararCarrito();

				state = RETORNO;  // inicar estado de retorno
 8fc:	05 e0       	ldi	r16, 0x05	; 5
				bajaEC();  // coger la bola
				_delay_ms(500);
				subeEC(); // subir la bola		
				bajaER();
				// Aqui: verficiar que bola esta cargada:
				state = BOLA_LANZADOR;
 8fe:	82 e0       	ldi	r24, 0x02	; 2
 900:	f8 2e       	mov	r15, r24
	vastagoHome();
	carritoHome();
	lanzadorHome();  // comprobar si se puede hacer el home de manera segura (ELEVADOR)
	encenderLED();
    while (1) {
		switch(state){
 902:	e0 91 07 02 	lds	r30, 0x0207	; 0x800207 <state>
 906:	f0 e0       	ldi	r31, 0x00	; 0
 908:	e7 30       	cpi	r30, 0x07	; 7
 90a:	f1 05       	cpc	r31, r1
 90c:	d0 f7       	brcc	.-12     	; 0x902 <main+0x4a>
 90e:	e4 58       	subi	r30, 0x84	; 132
 910:	ff 4f       	sbci	r31, 0xFF	; 255
 912:	0c 94 e7 05 	jmp	0xbce	; 0xbce <__tablejump2__>
			case HOME:  // despues de init
				ultimoFlag = 0;
 916:	10 92 12 02 	sts	0x0212, r1	; 0x800212 <ultimoFlag>
				parpadearFlag = 0;
 91a:	10 92 13 02 	sts	0x0213, r1	; 0x800213 <parpadearFlag>
				finalizadoFlag = 0;
 91e:	10 92 04 02 	sts	0x0204, r1	; 0x800204 <__data_end>
				puntuacion = 0;
 922:	10 92 14 02 	sts	0x0214, r1	; 0x800214 <puntuacion>
				// habilitar estado final se resetea despues
				// no hacemos nada, esperamos la interrupcion de disparo
				break;
 926:	ed cf       	rjmp	.-38     	; 0x902 <main+0x4a>
			case SIN_BOLA:
				apagarLED();
 928:	0e 94 2c 01 	call	0x258	; 0x258 <apagarLED>
				subeEC();  // comprobar que EC esta en posicion alta
 92c:	0e 94 5f 02 	call	0x4be	; 0x4be <subeEC>
				// _delay_ms(long_delay);  sube bloquante
				girarLanzador(1);
 930:	81 e0       	ldi	r24, 0x01	; 1
 932:	90 e0       	ldi	r25, 0x00	; 0
 934:	0e 94 af 00 	call	0x15e	; 0x15e <girarLanzador>
				moverVastagoAtras();  // mover vastago atras para evitar que choca (ya esta)
 938:	0e 94 f5 00 	call	0x1ea	; 0x1ea <moverVastagoAtras>
 93c:	2f ef       	ldi	r18, 0xFF	; 255
 93e:	89 e6       	ldi	r24, 0x69	; 105
 940:	98 e1       	ldi	r25, 0x18	; 24
 942:	21 50       	subi	r18, 0x01	; 1
 944:	80 40       	sbci	r24, 0x00	; 0
 946:	90 40       	sbci	r25, 0x00	; 0
 948:	e1 f7       	brne	.-8      	; 0x942 <main+0x8a>
 94a:	00 c0       	rjmp	.+0      	; 0x94c <main+0x94>
 94c:	00 00       	nop
				_delay_ms(long_delay);
				bajaEC();  // coger la bola
 94e:	0e 94 40 02 	call	0x480	; 0x480 <bajaEC>
 952:	2f ef       	ldi	r18, 0xFF	; 255
 954:	84 e3       	ldi	r24, 0x34	; 52
 956:	9c e0       	ldi	r25, 0x0C	; 12
 958:	21 50       	subi	r18, 0x01	; 1
 95a:	80 40       	sbci	r24, 0x00	; 0
 95c:	90 40       	sbci	r25, 0x00	; 0
 95e:	e1 f7       	brne	.-8      	; 0x958 <main+0xa0>
 960:	00 c0       	rjmp	.+0      	; 0x962 <main+0xaa>
 962:	00 00       	nop
				_delay_ms(500);
				subeEC(); // subir la bola		
 964:	0e 94 5f 02 	call	0x4be	; 0x4be <subeEC>
				bajaER();
 968:	0e 94 7f 02 	call	0x4fe	; 0x4fe <bajaER>
				// Aqui: verficiar que bola esta cargada:
				state = BOLA_LANZADOR;
 96c:	f0 92 07 02 	sts	0x0207, r15	; 0x800207 <state>
				break;
 970:	c8 cf       	rjmp	.-112    	; 0x902 <main+0x4a>
			case BOLA_LANZADOR:
				// proceso para enganchar la bola en el lanzador

				// liberamos el carrito
				do {
					liberarCarrito();
 972:	0e 94 11 01 	call	0x222	; 0x222 <liberarCarrito>
 976:	2f ef       	ldi	r18, 0xFF	; 255
 978:	81 ee       	ldi	r24, 0xE1	; 225
 97a:	94 e0       	ldi	r25, 0x04	; 4
 97c:	21 50       	subi	r18, 0x01	; 1
 97e:	80 40       	sbci	r24, 0x00	; 0
 980:	90 40       	sbci	r25, 0x00	; 0
 982:	e1 f7       	brne	.-8      	; 0x97c <main+0xc4>
 984:	00 c0       	rjmp	.+0      	; 0x986 <main+0xce>
 986:	00 00       	nop
				_delay_ms(button_check_delay_ms);}
				while(getSensor4()!=0);
 988:	0e 94 21 01 	call	0x242	; 0x242 <getSensor4>
 98c:	89 2b       	or	r24, r25
 98e:	89 f7       	brne	.-30     	; 0x972 <main+0xba>
				pararCarrito();
 990:	0e 94 00 01 	call	0x200	; 0x200 <pararCarrito>
					
				// movemos el vastago adelante
				do {
					moverVastagoAdelante();
 994:	0e 94 ea 00 	call	0x1d4	; 0x1d4 <moverVastagoAdelante>
 998:	2f ef       	ldi	r18, 0xFF	; 255
 99a:	81 ee       	ldi	r24, 0xE1	; 225
 99c:	94 e0       	ldi	r25, 0x04	; 4
 99e:	21 50       	subi	r18, 0x01	; 1
 9a0:	80 40       	sbci	r24, 0x00	; 0
 9a2:	90 40       	sbci	r25, 0x00	; 0
 9a4:	e1 f7       	brne	.-8      	; 0x99e <main+0xe6>
 9a6:	00 c0       	rjmp	.+0      	; 0x9a8 <main+0xf0>
 9a8:	00 00       	nop
				_delay_ms(button_check_delay_ms);}
				while(getSensor3()!=0);
 9aa:	0e 94 1c 01 	call	0x238	; 0x238 <getSensor3>
 9ae:	89 2b       	or	r24, r25
 9b0:	89 f7       	brne	.-30     	; 0x994 <main+0xdc>
				pararVastago();
 9b2:	0e 94 e4 00 	call	0x1c8	; 0x1c8 <pararVastago>
					
				// enganchamos el carrito
				do {
					engancharCarrito();
 9b6:	0e 94 06 01 	call	0x20c	; 0x20c <engancharCarrito>
 9ba:	2f ef       	ldi	r18, 0xFF	; 255
 9bc:	81 ee       	ldi	r24, 0xE1	; 225
 9be:	94 e0       	ldi	r25, 0x04	; 4
 9c0:	21 50       	subi	r18, 0x01	; 1
 9c2:	80 40       	sbci	r24, 0x00	; 0
 9c4:	90 40       	sbci	r25, 0x00	; 0
 9c6:	e1 f7       	brne	.-8      	; 0x9c0 <main+0x108>
 9c8:	00 c0       	rjmp	.+0      	; 0x9ca <main+0x112>
 9ca:	00 00       	nop
				_delay_ms(button_check_delay_ms);}
				while(getSensor4()!=0);
 9cc:	0e 94 21 01 	call	0x242	; 0x242 <getSensor4>
 9d0:	89 2b       	or	r24, r25
 9d2:	89 f7       	brne	.-30     	; 0x9b6 <main+0xfe>
				pararCarrito();
 9d4:	0e 94 00 01 	call	0x200	; 0x200 <pararCarrito>
					
				//movemos el vastago atras (enganchar gomas)
				do {
					moverVastagoAtras();
 9d8:	0e 94 f5 00 	call	0x1ea	; 0x1ea <moverVastagoAtras>
 9dc:	2f ef       	ldi	r18, 0xFF	; 255
 9de:	81 ee       	ldi	r24, 0xE1	; 225
 9e0:	94 e0       	ldi	r25, 0x04	; 4
 9e2:	21 50       	subi	r18, 0x01	; 1
 9e4:	80 40       	sbci	r24, 0x00	; 0
 9e6:	90 40       	sbci	r25, 0x00	; 0
 9e8:	e1 f7       	brne	.-8      	; 0x9e2 <main+0x12a>
 9ea:	00 c0       	rjmp	.+0      	; 0x9ec <main+0x134>
 9ec:	00 00       	nop
				_delay_ms(button_check_delay_ms);}
				while(getSensor3()!=0);
 9ee:	0e 94 1c 01 	call	0x238	; 0x238 <getSensor3>
 9f2:	89 2b       	or	r24, r25
 9f4:	89 f7       	brne	.-30     	; 0x9d8 <main+0x120>
				pararVastago();
 9f6:	0e 94 e4 00 	call	0x1c8	; 0x1c8 <pararVastago>
				
				if(oscillando==0){
 9fa:	80 91 10 02 	lds	r24, 0x0210	; 0x800210 <oscillando>
 9fe:	81 11       	cpse	r24, r1
 a00:	0f c0       	rjmp	.+30     	; 0xa20 <main+0x168>
					girarLanzador(0);  // girar hacia la izquierda
 a02:	80 e0       	ldi	r24, 0x00	; 0
 a04:	90 e0       	ldi	r25, 0x00	; 0
 a06:	0e 94 af 00 	call	0x15e	; 0x15e <girarLanzador>
 a0a:	2f ef       	ldi	r18, 0xFF	; 255
 a0c:	89 e6       	ldi	r24, 0x69	; 105
 a0e:	98 e1       	ldi	r25, 0x18	; 24
 a10:	21 50       	subi	r18, 0x01	; 1
 a12:	80 40       	sbci	r24, 0x00	; 0
 a14:	90 40       	sbci	r25, 0x00	; 0
 a16:	e1 f7       	brne	.-8      	; 0xa10 <main+0x158>
 a18:	00 c0       	rjmp	.+0      	; 0xa1a <main+0x162>
 a1a:	00 00       	nop
					_delay_ms(1000);  // hasta que llega a la iqzuierda
					oscillando = 1;
 a1c:	c0 93 10 02 	sts	0x0210, r28	; 0x800210 <oscillando>
				}
				
				state = LANZAMIENTO; // empezar lanzamiento
 a20:	d0 93 07 02 	sts	0x0207, r29	; 0x800207 <state>
				
				break;
 a24:	6e cf       	rjmp	.-292    	; 0x902 <main+0x4a>

			case LANZAMIENTO:
				
				bajaER();
 a26:	0e 94 7f 02 	call	0x4fe	; 0x4fe <bajaER>
				if(ultimoFlag){
 a2a:	80 91 12 02 	lds	r24, 0x0212	; 0x800212 <ultimoFlag>
 a2e:	88 23       	and	r24, r24
 a30:	19 f0       	breq	.+6      	; 0xa38 <main+0x180>
					parpadearFlag = 1;
 a32:	c0 93 13 02 	sts	0x0213, r28	; 0x800213 <parpadearFlag>
 a36:	65 cf       	rjmp	.-310    	; 0x902 <main+0x4a>
				}
				else{
					encenderLED();
 a38:	0e 94 26 01 	call	0x24c	; 0x24c <encenderLED>
 a3c:	62 cf       	rjmp	.-316    	; 0x902 <main+0x4a>
				// state = TIRAR_BOLA;
				break;
					
			case TIRAR_BOLA:
			
				if(habilitarEstadoFinal==1 && ultimoFlag==0){  // empezar timer de 30 segundos
 a3e:	80 91 02 02 	lds	r24, 0x0202	; 0x800202 <habilitarEstadoFinal>
 a42:	81 30       	cpi	r24, 0x01	; 1
 a44:	71 f4       	brne	.+28     	; 0xa62 <main+0x1aa>
 a46:	80 91 12 02 	lds	r24, 0x0212	; 0x800212 <ultimoFlag>
 a4a:	81 11       	cpse	r24, r1
 a4c:	0a c0       	rjmp	.+20     	; 0xa62 <main+0x1aa>
					resetTimer1();
 a4e:	0e 94 76 01 	call	0x2ec	; 0x2ec <resetTimer1>
					enableTimer1Int();
 a52:	0e 94 7e 01 	call	0x2fc	; 0x2fc <enableTimer1Int>
					puntuacion = 0;
 a56:	10 92 14 02 	sts	0x0214, r1	; 0x800214 <puntuacion>
					timerTicks = 0;
 a5a:	10 92 11 02 	sts	0x0211, r1	; 0x800211 <timerTicks>
					habilitarEstadoFinal = 0;  // resetear flag de estado final
 a5e:	10 92 02 02 	sts	0x0202, r1	; 0x800202 <habilitarEstadoFinal>
				}
				
				oscillando=0;  // deshabilitar bandera de oscillacion
 a62:	10 92 10 02 	sts	0x0210, r1	; 0x800210 <oscillando>
				
				// El interruptor de disparo se ha pulsado
				parpadearFlag = 0;  // apagar led despues del disparo (y parpadeo)
 a66:	10 92 13 02 	sts	0x0213, r1	; 0x800213 <parpadearFlag>
				apagarLED();
 a6a:	0e 94 2c 01 	call	0x258	; 0x258 <apagarLED>
				
				if(ultimoFlag==1){  // si ya se hizo la ultima tirada
 a6e:	80 91 12 02 	lds	r24, 0x0212	; 0x800212 <ultimoFlag>
 a72:	81 30       	cpi	r24, 0x01	; 1
 a74:	11 f4       	brne	.+4      	; 0xa7a <main+0x1c2>
					habilitarEstadoFinal = 1;  // pasar al estado final despues del retorno
 a76:	80 93 02 02 	sts	0x0202, r24	; 0x800202 <habilitarEstadoFinal>
				}
				
				frenoLanzador();  // frenamos el lanzador
 a7a:	0e 94 cf 00 	call	0x19e	; 0x19e <frenoLanzador>
 a7e:	2f ef       	ldi	r18, 0xFF	; 255
 a80:	81 ee       	ldi	r24, 0xE1	; 225
 a82:	94 e0       	ldi	r25, 0x04	; 4
 a84:	21 50       	subi	r18, 0x01	; 1
 a86:	80 40       	sbci	r24, 0x00	; 0
 a88:	90 40       	sbci	r25, 0x00	; 0
 a8a:	e1 f7       	brne	.-8      	; 0xa84 <main+0x1cc>
 a8c:	00 c0       	rjmp	.+0      	; 0xa8e <main+0x1d6>
 a8e:	00 00       	nop
				_delay_ms(button_check_delay_ms);
				liberarCarrito();  // tiramos la bola
 a90:	0e 94 11 01 	call	0x222	; 0x222 <liberarCarrito>
 a94:	2f ef       	ldi	r18, 0xFF	; 255
 a96:	81 ee       	ldi	r24, 0xE1	; 225
 a98:	94 e0       	ldi	r25, 0x04	; 4
 a9a:	21 50       	subi	r18, 0x01	; 1
 a9c:	80 40       	sbci	r24, 0x00	; 0
 a9e:	90 40       	sbci	r25, 0x00	; 0
 aa0:	e1 f7       	brne	.-8      	; 0xa9a <main+0x1e2>
 aa2:	00 c0       	rjmp	.+0      	; 0xaa4 <main+0x1ec>
 aa4:	00 00       	nop
				_delay_ms(button_check_delay_ms);
				loop_until_bit_is_clear(SW4PIN,SW4X);
 aa6:	4c 99       	sbic	0x09, 4	; 9
 aa8:	fe cf       	rjmp	.-4      	; 0xaa6 <main+0x1ee>
				pararCarrito();
 aaa:	0e 94 00 01 	call	0x200	; 0x200 <pararCarrito>

				state = RETORNO;  // inicar estado de retorno
 aae:	00 93 07 02 	sts	0x0207, r16	; 0x800207 <state>
				break;
 ab2:	27 cf       	rjmp	.-434    	; 0x902 <main+0x4a>
 ab4:	2f ef       	ldi	r18, 0xFF	; 255
 ab6:	87 ea       	ldi	r24, 0xA7	; 167
 ab8:	91 e6       	ldi	r25, 0x61	; 97
 aba:	21 50       	subi	r18, 0x01	; 1
 abc:	80 40       	sbci	r24, 0x00	; 0
 abe:	90 40       	sbci	r25, 0x00	; 0
 ac0:	e1 f7       	brne	.-8      	; 0xaba <main+0x202>
 ac2:	00 c0       	rjmp	.+0      	; 0xac4 <main+0x20c>
 ac4:	00 00       	nop
			case RETORNO:
				_delay_ms(ballArrivalDelay);   // esperar hasta la bola llega
				//recarga();
				// si no funcionan las interrupciones:

				subeER();
 ac6:	0e 94 83 02 	call	0x506	; 0x506 <subeER>
				deshabilitarInterrupcionesSensores();  // evitar otras interrupciones de los bolos
 aca:	0e 94 83 05 	call	0xb06	; 0xb06 <deshabilitarInterrupcionesSensores>
 ace:	2f ef       	ldi	r18, 0xFF	; 255
 ad0:	8d e3       	ldi	r24, 0x3D	; 61
 ad2:	99 e4       	ldi	r25, 0x49	; 73
 ad4:	21 50       	subi	r18, 0x01	; 1
 ad6:	80 40       	sbci	r24, 0x00	; 0
 ad8:	90 40       	sbci	r25, 0x00	; 0
 ada:	e1 f7       	brne	.-8      	; 0xad4 <main+0x21c>
 adc:	00 c0       	rjmp	.+0      	; 0xade <main+0x226>
 ade:	00 00       	nop
				_delay_ms(3000);
				if(habilitarEstadoFinal==1){ // si hemos tirado la bola y ya estamos en el ultimo disparo
 ae0:	80 91 02 02 	lds	r24, 0x0202	; 0x800202 <habilitarEstadoFinal>
 ae4:	81 30       	cpi	r24, 0x01	; 1
 ae6:	19 f4       	brne	.+6      	; 0xaee <main+0x236>
					state = FINAL;  // ir al estado de parpadeo
 ae8:	10 93 07 02 	sts	0x0207, r17	; 0x800207 <state>
 aec:	0a cf       	rjmp	.-492    	; 0x902 <main+0x4a>
				}
				else{
					state = SIN_BOLA; // volver a recoger la bola 
 aee:	c0 93 07 02 	sts	0x0207, r28	; 0x800207 <state>
 af2:	07 cf       	rjmp	.-498    	; 0x902 <main+0x4a>
				}
				break;
			case FINAL:
				bajaER();
 af4:	0e 94 7f 02 	call	0x4fe	; 0x4fe <bajaER>
				finalizadoFlag = 1;  // parpadear display
 af8:	c0 93 04 02 	sts	0x0204, r28	; 0x800204 <__data_end>
				break;
 afc:	02 cf       	rjmp	.-508    	; 0x902 <main+0x4a>

00000afe <habilitarInterrupcionesSensores>:
uint8_t getPuntacion(){
	return puntuacion;
}

void setPuntuacion(uint8_t num){
	puntuacion = num;
 afe:	8f e3       	ldi	r24, 0x3F	; 63
 b00:	80 93 6d 00 	sts	0x006D, r24	; 0x80006d <__TEXT_REGION_LENGTH__+0x7f006d>
 b04:	08 95       	ret

00000b06 <deshabilitarInterrupcionesSensores>:
 b06:	10 92 6d 00 	sts	0x006D, r1	; 0x80006d <__TEXT_REGION_LENGTH__+0x7f006d>
 b0a:	08 95       	ret

00000b0c <OnPinChangeBolos>:
}


inline void OnPinChangeBolos(){
	puntuacion++;
 b0c:	80 91 14 02 	lds	r24, 0x0214	; 0x800214 <puntuacion>
 b10:	8f 5f       	subi	r24, 0xFF	; 255
 b12:	80 93 14 02 	sts	0x0214, r24	; 0x800214 <puntuacion>
	uint8_t puertoactual = ~PINK;  //PINK normalmente estará a 1 !!
 b16:	80 91 06 01 	lds	r24, 0x0106	; 0x800106 <__TEXT_REGION_LENGTH__+0x7f0106>
 b1a:	80 95       	com	r24
	//Lo negamos para que al tocar (flanco de bajada,0, entonces en puertoactual 1)
	//AND bit a bit para determinar si un bit en particular ha cambiado en el puerto
	if(puertoactual & (1<<SO1PIN)){
 b1c:	80 ff       	sbrs	r24, 0
 b1e:	05 c0       	rjmp	.+10     	; 0xb2a <OnPinChangeBolos+0x1e>
		//PCMSK2 &=~(1<<PCINT16);
		clearBit(SOPCMSK,PCINT16);
 b20:	90 91 6d 00 	lds	r25, 0x006D	; 0x80006d <__TEXT_REGION_LENGTH__+0x7f006d>
 b24:	9e 7f       	andi	r25, 0xFE	; 254
 b26:	90 93 6d 00 	sts	0x006D, r25	; 0x80006d <__TEXT_REGION_LENGTH__+0x7f006d>
	} //Deshabilito esa interrupcion para que no rebote
	if(puertoactual & (1<<SO2PIN)){
 b2a:	81 ff       	sbrs	r24, 1
 b2c:	05 c0       	rjmp	.+10     	; 0xb38 <OnPinChangeBolos+0x2c>
		//PCMSK2 &=~(1<<PCINT17);
		clearBit(SOPCMSK,PCINT17);
 b2e:	90 91 6d 00 	lds	r25, 0x006D	; 0x80006d <__TEXT_REGION_LENGTH__+0x7f006d>
 b32:	9d 7f       	andi	r25, 0xFD	; 253
 b34:	90 93 6d 00 	sts	0x006D, r25	; 0x80006d <__TEXT_REGION_LENGTH__+0x7f006d>
	}
	if(puertoactual & (1<<SO3PIN)){
 b38:	82 ff       	sbrs	r24, 2
 b3a:	05 c0       	rjmp	.+10     	; 0xb46 <OnPinChangeBolos+0x3a>
		//PCMSK2 &=~(1<<PCINT18);
		clearBit(SOPCMSK,PCINT18);
 b3c:	90 91 6d 00 	lds	r25, 0x006D	; 0x80006d <__TEXT_REGION_LENGTH__+0x7f006d>
 b40:	9b 7f       	andi	r25, 0xFB	; 251
 b42:	90 93 6d 00 	sts	0x006D, r25	; 0x80006d <__TEXT_REGION_LENGTH__+0x7f006d>
	}
	if(puertoactual & (1<<SO4PIN)){
 b46:	83 ff       	sbrs	r24, 3
 b48:	05 c0       	rjmp	.+10     	; 0xb54 <OnPinChangeBolos+0x48>
		//PCMSK2 &=~(1<<PCINT19);
		clearBit(SOPCMSK,PCINT19);
 b4a:	90 91 6d 00 	lds	r25, 0x006D	; 0x80006d <__TEXT_REGION_LENGTH__+0x7f006d>
 b4e:	97 7f       	andi	r25, 0xF7	; 247
 b50:	90 93 6d 00 	sts	0x006D, r25	; 0x80006d <__TEXT_REGION_LENGTH__+0x7f006d>
	}
	if(puertoactual & (1<<SO5PIN)){
 b54:	84 ff       	sbrs	r24, 4
 b56:	05 c0       	rjmp	.+10     	; 0xb62 <OnPinChangeBolos+0x56>
		//PCMSK2 &=~(1<<PCINT20);
		clearBit(SOPCMSK,PCINT20);
 b58:	90 91 6d 00 	lds	r25, 0x006D	; 0x80006d <__TEXT_REGION_LENGTH__+0x7f006d>
 b5c:	9f 7e       	andi	r25, 0xEF	; 239
 b5e:	90 93 6d 00 	sts	0x006D, r25	; 0x80006d <__TEXT_REGION_LENGTH__+0x7f006d>
	}
	if(puertoactual & (1<<SO6PIN)){
 b62:	85 ff       	sbrs	r24, 5
 b64:	05 c0       	rjmp	.+10     	; 0xb70 <OnPinChangeBolos+0x64>
		//PCMSK2 &=~(1<<PCINT21);
		clearBit(SOPCMSK,PCINT21);
 b66:	80 91 6d 00 	lds	r24, 0x006D	; 0x80006d <__TEXT_REGION_LENGTH__+0x7f006d>
 b6a:	8f 7d       	andi	r24, 0xDF	; 223
 b6c:	80 93 6d 00 	sts	0x006D, r24	; 0x80006d <__TEXT_REGION_LENGTH__+0x7f006d>
 b70:	08 95       	ret

00000b72 <__udivmodqi4>:
 b72:	99 1b       	sub	r25, r25
 b74:	79 e0       	ldi	r23, 0x09	; 9
 b76:	04 c0       	rjmp	.+8      	; 0xb80 <__udivmodqi4_ep>

00000b78 <__udivmodqi4_loop>:
 b78:	99 1f       	adc	r25, r25
 b7a:	96 17       	cp	r25, r22
 b7c:	08 f0       	brcs	.+2      	; 0xb80 <__udivmodqi4_ep>
 b7e:	96 1b       	sub	r25, r22

00000b80 <__udivmodqi4_ep>:
 b80:	88 1f       	adc	r24, r24
 b82:	7a 95       	dec	r23
 b84:	c9 f7       	brne	.-14     	; 0xb78 <__udivmodqi4_loop>
 b86:	80 95       	com	r24
 b88:	08 95       	ret

00000b8a <__udivmodsi4>:
 b8a:	a1 e2       	ldi	r26, 0x21	; 33
 b8c:	1a 2e       	mov	r1, r26
 b8e:	aa 1b       	sub	r26, r26
 b90:	bb 1b       	sub	r27, r27
 b92:	fd 01       	movw	r30, r26
 b94:	0d c0       	rjmp	.+26     	; 0xbb0 <__udivmodsi4_ep>

00000b96 <__udivmodsi4_loop>:
 b96:	aa 1f       	adc	r26, r26
 b98:	bb 1f       	adc	r27, r27
 b9a:	ee 1f       	adc	r30, r30
 b9c:	ff 1f       	adc	r31, r31
 b9e:	a2 17       	cp	r26, r18
 ba0:	b3 07       	cpc	r27, r19
 ba2:	e4 07       	cpc	r30, r20
 ba4:	f5 07       	cpc	r31, r21
 ba6:	20 f0       	brcs	.+8      	; 0xbb0 <__udivmodsi4_ep>
 ba8:	a2 1b       	sub	r26, r18
 baa:	b3 0b       	sbc	r27, r19
 bac:	e4 0b       	sbc	r30, r20
 bae:	f5 0b       	sbc	r31, r21

00000bb0 <__udivmodsi4_ep>:
 bb0:	66 1f       	adc	r22, r22
 bb2:	77 1f       	adc	r23, r23
 bb4:	88 1f       	adc	r24, r24
 bb6:	99 1f       	adc	r25, r25
 bb8:	1a 94       	dec	r1
 bba:	69 f7       	brne	.-38     	; 0xb96 <__udivmodsi4_loop>
 bbc:	60 95       	com	r22
 bbe:	70 95       	com	r23
 bc0:	80 95       	com	r24
 bc2:	90 95       	com	r25
 bc4:	9b 01       	movw	r18, r22
 bc6:	ac 01       	movw	r20, r24
 bc8:	bd 01       	movw	r22, r26
 bca:	cf 01       	movw	r24, r30
 bcc:	08 95       	ret

00000bce <__tablejump2__>:
 bce:	ee 0f       	add	r30, r30
 bd0:	ff 1f       	adc	r31, r31
 bd2:	05 90       	lpm	r0, Z+
 bd4:	f4 91       	lpm	r31, Z
 bd6:	e0 2d       	mov	r30, r0
 bd8:	09 94       	ijmp

00000bda <_exit>:
 bda:	f8 94       	cli

00000bdc <__stop_program>:
 bdc:	ff cf       	rjmp	.-2      	; 0xbdc <__stop_program>
